
test.elf:     file format elf32-littleriscv


Disassembly of section .text:

40000000 <_entry>:
40000000:	00001697          	auipc	a3,0x1
40000004:	6a068693          	addi	a3,a3,1696 # 400016a0 <_edata>
40000008:	00001617          	auipc	a2,0x1
4000000c:	6a060613          	addi	a2,a2,1696 # 400016a8 <_bss_end>
40000010:	00002197          	auipc	gp,0x2
40000014:	e9018193          	addi	gp,gp,-368 # 40001ea0 <_gp>
40000018:	10000117          	auipc	sp,0x10000
4000001c:	fe410113          	addi	sp,sp,-28 # 4ffffffc <_stack>
40000020:	00001217          	auipc	tp,0x1
40000024:	6c720213          	addi	tp,tp,1735 # 400016e7 <_bss_end+0x3f>
40000028:	fc027213          	andi	tp,tp,-64

4000002c <BSS_CLEAR>:
4000002c:	0006a023          	sw	zero,0(a3)
40000030:	00468693          	addi	a3,a3,4
40000034:	fec6cce3          	blt	a3,a2,4000002c <BSS_CLEAR>
40000038:	00000d97          	auipc	s11,0x0
4000003c:	0c8d8d93          	addi	s11,s11,200 # 40000100 <_isr>
40000040:	f0000d37          	lui	s10,0xf0000
40000044:	01bd2023          	sw	s11,0(s10) # f0000000 <_stack+0xa0000004>
40000048:	520000ef          	jal	ra,40000568 <irq_enable>
4000004c:	2c4010ef          	jal	ra,40001310 <main_test>
40000050:	e0000d37          	lui	s10,0xe0000
40000054:	000d2023          	sw	zero,0(s10) # e0000000 <_stack+0x90000004>

40000058 <L1>:
40000058:	00000063          	beq	zero,zero,40000058 <L1>
	...

40000100 <_isr>:
40000100:	00000013          	addi	zero,zero,0
40000104:	fbc10113          	addi	sp,sp,-68
40000108:	00112023          	sw	ra,0(sp)
4000010c:	00512223          	sw	t0,4(sp)
40000110:	00612423          	sw	t1,8(sp)
40000114:	00712623          	sw	t2,12(sp)
40000118:	00a12823          	sw	a0,16(sp)
4000011c:	00b12a23          	sw	a1,20(sp)
40000120:	00c12c23          	sw	a2,24(sp)
40000124:	00d12e23          	sw	a3,28(sp)
40000128:	02e12023          	sw	a4,32(sp)
4000012c:	02f12223          	sw	a5,36(sp)
40000130:	03012423          	sw	a6,40(sp)
40000134:	03112623          	sw	a7,44(sp)
40000138:	03c12823          	sw	t3,48(sp)
4000013c:	03d12a23          	sw	t4,52(sp)
40000140:	03e12c23          	sw	t5,56(sp)
40000144:	03f12e23          	sw	t6,60(sp)
40000148:	f0000d37          	lui	s10,0xf0000
4000014c:	040d0d13          	addi	s10,s10,64 # f0000040 <_stack+0xa0000044>
40000150:	000d2d03          	lw	s10,0(s10)
40000154:	ffcd0d13          	addi	s10,s10,-4
40000158:	05a12023          	sw	s10,64(sp)
4000015c:	f00005b7          	lui	a1,0xf0000
40000160:	0105a503          	lw	a0,16(a1) # f0000010 <_stack+0xa0000014>
40000164:	0205a603          	lw	a2,32(a1)
40000168:	00c57533          	and	a0,a0,a2
4000016c:	00010593          	addi	a1,sp,0
40000170:	06050263          	beq	a0,zero,400001d4 <_exception>
40000174:	428000ef          	jal	ra,4000059c <irq_handler>

40000178 <_restore>:
40000178:	01012503          	lw	a0,16(sp)
4000017c:	01412583          	lw	a1,20(sp)

40000180 <_restore_exception>:
40000180:	00012083          	lw	ra,0(sp)
40000184:	00412283          	lw	t0,4(sp)
40000188:	00812303          	lw	t1,8(sp)
4000018c:	00c12383          	lw	t2,12(sp)
40000190:	01812603          	lw	a2,24(sp)
40000194:	01c12683          	lw	a3,28(sp)
40000198:	02012703          	lw	a4,32(sp)
4000019c:	02412783          	lw	a5,36(sp)
400001a0:	02812803          	lw	a6,40(sp)
400001a4:	02c12883          	lw	a7,44(sp)
400001a8:	03012e03          	lw	t3,48(sp)
400001ac:	03412e83          	lw	t4,52(sp)
400001b0:	03812f03          	lw	t5,56(sp)
400001b4:	03c12f83          	lw	t6,60(sp)
400001b8:	04410113          	addi	sp,sp,68
400001bc:	00106d93          	ori	s11,zero,1
400001c0:	f0000d37          	lui	s10,0xf0000
400001c4:	030d0d13          	addi	s10,s10,48 # f0000030 <_stack+0xa0000034>
400001c8:	01bd2023          	sw	s11,0(s10)
400001cc:	ffc12d03          	lw	s10,-4(sp)
400001d0:	000d0067          	jalr	zero,0(s10)

400001d4 <_exception>:
400001d4:	00088513          	addi	a0,a7,0
400001d8:	01412583          	lw	a1,20(sp)
400001dc:	01812603          	lw	a2,24(sp)
400001e0:	01c12683          	lw	a3,28(sp)
400001e4:	408000ef          	jal	ra,400005ec <exception_handler>
400001e8:	f99ff06f          	jal	zero,40000180 <_restore_exception>

400001ec <_interrupt_set>:
400001ec:	f00005b7          	lui	a1,0xf0000
400001f0:	03058593          	addi	a1,a1,48 # f0000030 <_stack+0xa0000034>
400001f4:	0005a603          	lw	a2,0(a1)
400001f8:	00a5a023          	sw	a0,0(a1)
400001fc:	00060513          	addi	a0,a2,0
40000200:	00008067          	jalr	zero,0(ra)

40000204 <setjmp>:
40000204:	00852023          	sw	s0,0(a0)
40000208:	00952223          	sw	s1,4(a0)
4000020c:	01252423          	sw	s2,8(a0)
40000210:	01352623          	sw	s3,12(a0)
40000214:	01452823          	sw	s4,16(a0)
40000218:	01552a23          	sw	s5,20(a0)
4000021c:	01652c23          	sw	s6,24(a0)
40000220:	01752e23          	sw	s7,28(a0)
40000224:	03852023          	sw	s8,32(a0)
40000228:	03952223          	sw	s9,36(a0)
4000022c:	02452623          	sw	tp,44(a0)
40000230:	02252823          	sw	sp,48(a0)
40000234:	02152a23          	sw	ra,52(a0)
40000238:	00006513          	ori	a0,zero,0
4000023c:	00008067          	jalr	zero,0(ra)

40000240 <longjmp>:
40000240:	00052403          	lw	s0,0(a0)
40000244:	00452483          	lw	s1,4(a0)
40000248:	00852903          	lw	s2,8(a0)
4000024c:	00c52983          	lw	s3,12(a0)
40000250:	01052a03          	lw	s4,16(a0)
40000254:	01452a83          	lw	s5,20(a0)
40000258:	01852b03          	lw	s6,24(a0)
4000025c:	01c52b83          	lw	s7,28(a0)
40000260:	02052c03          	lw	s8,32(a0)
40000264:	02452c83          	lw	s9,36(a0)
40000268:	02c52203          	lw	tp,44(a0)
4000026c:	03052103          	lw	sp,48(a0)
40000270:	03452083          	lw	ra,52(a0)
40000274:	0005e513          	ori	a0,a1,0
40000278:	00008067          	jalr	zero,0(ra)

4000027c <syscall>:
4000027c:	00050893          	addi	a7,a0,0
40000280:	00000073          	ecall
40000284:	00008067          	jalr	zero,0(ra)

40000288 <printBits>:
40000288:	fff50793          	addi	a5,a0,-1
4000028c:	0807c263          	blt	a5,zero,40000310 <printBits+0x88>
40000290:	fe010113          	addi	sp,sp,-32
40000294:	00912a23          	sw	s1,20(sp)
40000298:	01212823          	sw	s2,16(sp)
4000029c:	01312623          	sw	s3,12(sp)
400002a0:	01412423          	sw	s4,8(sp)
400002a4:	00112e23          	sw	ra,28(sp)
400002a8:	00812c23          	sw	s0,24(sp)
400002ac:	00a584b3          	add	s1,a1,a0
400002b0:	400019b7          	lui	s3,0x40001
400002b4:	fff5ca13          	xori	s4,a1,-1
400002b8:	fff00913          	addi	s2,zero,-1
400002bc:	00700413          	addi	s0,zero,7
400002c0:	fff4c583          	lbu	a1,-1(s1)
400002c4:	3b498513          	addi	a0,s3,948 # 400013b4 <_etext>
400002c8:	4085d5b3          	sra	a1,a1,s0
400002cc:	0015f593          	andi	a1,a1,1
400002d0:	fff40413          	addi	s0,s0,-1
400002d4:	79c000ef          	jal	ra,40000a70 <printf>
400002d8:	ff2414e3          	bne	s0,s2,400002c0 <printBits+0x38>
400002dc:	fff48493          	addi	s1,s1,-1
400002e0:	009a07b3          	add	a5,s4,s1
400002e4:	fc07dce3          	bge	a5,zero,400002bc <printBits+0x34>
400002e8:	01812403          	lw	s0,24(sp)
400002ec:	01c12083          	lw	ra,28(sp)
400002f0:	01412483          	lw	s1,20(sp)
400002f4:	01012903          	lw	s2,16(sp)
400002f8:	00c12983          	lw	s3,12(sp)
400002fc:	00812a03          	lw	s4,8(sp)
40000300:	40001537          	lui	a0,0x40001
40000304:	61850513          	addi	a0,a0,1560 # 40001618 <_etext+0x264>
40000308:	02010113          	addi	sp,sp,32
4000030c:	7140006f          	jal	zero,40000a20 <puts>
40000310:	40001537          	lui	a0,0x40001
40000314:	61850513          	addi	a0,a0,1560 # 40001618 <_etext+0x264>
40000318:	7080006f          	jal	zero,40000a20 <puts>

4000031c <dummy_handler>:
4000031c:	40001537          	lui	a0,0x40001
40000320:	43c50513          	addi	a0,a0,1084 # 4000143c <_etext+0x88>
40000324:	74c0006f          	jal	zero,40000a70 <printf>

40000328 <irq0_handler>:
40000328:	e10007b7          	lui	a5,0xe1000
4000032c:	fd010113          	addi	sp,sp,-48
40000330:	4007a783          	lw	a5,1024(a5) # e1000400 <_stack+0x91000404>
40000334:	01312e23          	sw	s3,28(sp)
40000338:	01412c23          	sw	s4,24(sp)
4000033c:	400019b7          	lui	s3,0x40001
40000340:	40001a37          	lui	s4,0x40001
40000344:	02912223          	sw	s1,36(sp)
40000348:	03212023          	sw	s2,32(sp)
4000034c:	02112623          	sw	ra,44(sp)
40000350:	02812423          	sw	s0,40(sp)
40000354:	01512a23          	sw	s5,20(sp)
40000358:	01612823          	sw	s6,16(sp)
4000035c:	01712623          	sw	s7,12(sp)
40000360:	01812423          	sw	s8,8(sp)
40000364:	01912223          	sw	s9,4(sp)
40000368:	02000913          	addi	s2,zero,32
4000036c:	00100493          	addi	s1,zero,1
40000370:	66098993          	addi	s3,s3,1632 # 40001660 <timer_vector>
40000374:	630a0a13          	addi	s4,s4,1584 # 40001630 <gpio_vector>
40000378:	e10007b7          	lui	a5,0xe1000
4000037c:	4007a703          	lw	a4,1024(a5) # e1000400 <_stack+0x91000404>
40000380:	00149493          	slli	s1,s1,0x1
40000384:	0c070663          	beq	a4,zero,40000450 <irq0_handler+0x128>
40000388:	fff90913          	addi	s2,s2,-1
4000038c:	0c090263          	beq	s2,zero,40000450 <irq0_handler+0x128>
40000390:	4007a783          	lw	a5,1024(a5)
40000394:	02000713          	addi	a4,zero,32
40000398:	0097f7b3          	and	a5,a5,s1
4000039c:	14f76463          	bltu	a4,a5,400004e4 <irq0_handler+0x1bc>
400003a0:	40001737          	lui	a4,0x40001
400003a4:	00279793          	slli	a5,a5,0x2
400003a8:	3b870713          	addi	a4,a4,952 # 400013b8 <_etext+0x4>
400003ac:	00e787b3          	add	a5,a5,a4
400003b0:	0007a783          	lw	a5,0(a5)
400003b4:	00078067          	jalr	zero,0(a5)
400003b8:	e10117b7          	lui	a5,0xe1011
400003bc:	e1010737          	lui	a4,0xe1010
400003c0:	40072403          	lw	s0,1024(a4) # e1010400 <_stack+0x91010404>
400003c4:	8007a703          	lw	a4,-2048(a5) # e1010800 <_stack+0x91010804>
400003c8:	c007a783          	lw	a5,-1024(a5)
400003cc:	00000c93          	addi	s9,zero,0
400003d0:	00e44433          	xor	s0,s0,a4
400003d4:	00f47433          	and	s0,s0,a5
400003d8:	00100b13          	addi	s6,zero,1
400003dc:	e1014c37          	lui	s8,0xe1014
400003e0:	00200a93          	addi	s5,zero,2
400003e4:	e1015bb7          	lui	s7,0xe1015
400003e8:	00147793          	andi	a5,s0,1
400003ec:	04078463          	beq	a5,zero,40000434 <irq0_handler+0x10c>
400003f0:	156c8a63          	beq	s9,s6,40000544 <irq0_handler+0x21c>
400003f4:	120c8663          	beq	s9,zero,40000520 <irq0_handler+0x1f8>
400003f8:	115c8263          	beq	s9,s5,400004fc <irq0_handler+0x1d4>
400003fc:	00300793          	addi	a5,zero,3
40000400:	02fc9263          	bne	s9,a5,40000424 <irq0_handler+0xfc>
40000404:	c20ba783          	lw	a5,-992(s7) # e1014c20 <_stack+0x91014c24>
40000408:	c30ba603          	lw	a2,-976(s7)
4000040c:	c40ba683          	lw	a3,-960(s7)
40000410:	c30ba703          	lw	a4,-976(s7)
40000414:	00c7c7b3          	xor	a5,a5,a2
40000418:	00d7f7b3          	and	a5,a5,a3
4000041c:	00e7c7b3          	xor	a5,a5,a4
40000420:	c2fba823          	sw	a5,-976(s7)
40000424:	002c9793          	slli	a5,s9,0x2
40000428:	00fa07b3          	add	a5,s4,a5
4000042c:	0007a783          	lw	a5,0(a5)
40000430:	000780e7          	jalr	ra,0(a5)
40000434:	00145413          	srli	s0,s0,0x1
40000438:	001c8c93          	addi	s9,s9,1
4000043c:	fa0416e3          	bne	s0,zero,400003e8 <irq0_handler+0xc0>
40000440:	e10007b7          	lui	a5,0xe1000
40000444:	4007a703          	lw	a4,1024(a5) # e1000400 <_stack+0x91000404>
40000448:	00149493          	slli	s1,s1,0x1
4000044c:	f2071ee3          	bne	a4,zero,40000388 <irq0_handler+0x60>
40000450:	02c12083          	lw	ra,44(sp)
40000454:	02812403          	lw	s0,40(sp)
40000458:	02412483          	lw	s1,36(sp)
4000045c:	02012903          	lw	s2,32(sp)
40000460:	01c12983          	lw	s3,28(sp)
40000464:	01812a03          	lw	s4,24(sp)
40000468:	01412a83          	lw	s5,20(sp)
4000046c:	01012b03          	lw	s6,16(sp)
40000470:	00c12b83          	lw	s7,12(sp)
40000474:	00812c03          	lw	s8,8(sp)
40000478:	00412c83          	lw	s9,4(sp)
4000047c:	03010113          	addi	sp,sp,48
40000480:	00008067          	jalr	zero,0(ra)
40000484:	e10217b7          	lui	a5,0xe1021
40000488:	e1020737          	lui	a4,0xe1020
4000048c:	40072403          	lw	s0,1024(a4) # e1020400 <_stack+0x91020404>
40000490:	8007a703          	lw	a4,-2048(a5) # e1020800 <_stack+0x91020804>
40000494:	c007a783          	lw	a5,-1024(a5)
40000498:	00000a93          	addi	s5,zero,0
4000049c:	00e44433          	xor	s0,s0,a4
400004a0:	00f47433          	and	s0,s0,a5
400004a4:	e1021bb7          	lui	s7,0xe1021
400004a8:	00100b13          	addi	s6,zero,1
400004ac:	00147793          	andi	a5,s0,1
400004b0:	02078263          	beq	a5,zero,400004d4 <irq0_handler+0x1ac>
400004b4:	800ba683          	lw	a3,-2048(s7) # e1020800 <_stack+0x91020804>
400004b8:	002a9713          	slli	a4,s5,0x2
400004bc:	00e98733          	add	a4,s3,a4
400004c0:	015b17b3          	sll	a5,s6,s5
400004c4:	00072703          	lw	a4,0(a4)
400004c8:	00d7c7b3          	xor	a5,a5,a3
400004cc:	80fba023          	sw	a5,-2048(s7)
400004d0:	000700e7          	jalr	ra,0(a4)
400004d4:	00145413          	srli	s0,s0,0x1
400004d8:	001a8a93          	addi	s5,s5,1
400004dc:	fc0418e3          	bne	s0,zero,400004ac <irq0_handler+0x184>
400004e0:	e99ff06f          	jal	zero,40000378 <irq0_handler+0x50>
400004e4:	e10007b7          	lui	a5,0xe1000
400004e8:	4007a583          	lw	a1,1024(a5) # e1000400 <_stack+0x91000404>
400004ec:	40001537          	lui	a0,0x40001
400004f0:	47050513          	addi	a0,a0,1136 # 40001470 <_etext+0xbc>
400004f4:	57c000ef          	jal	ra,40000a70 <printf>
400004f8:	e81ff06f          	jal	zero,40000378 <irq0_handler+0x50>
400004fc:	820ba783          	lw	a5,-2016(s7)
40000500:	830ba603          	lw	a2,-2000(s7)
40000504:	840ba683          	lw	a3,-1984(s7)
40000508:	830ba703          	lw	a4,-2000(s7)
4000050c:	00c7c7b3          	xor	a5,a5,a2
40000510:	00d7f7b3          	and	a5,a5,a3
40000514:	00e7c7b3          	xor	a5,a5,a4
40000518:	82fba823          	sw	a5,-2000(s7)
4000051c:	f09ff06f          	jal	zero,40000424 <irq0_handler+0xfc>
40000520:	020c2783          	lw	a5,32(s8) # e1014020 <_stack+0x91014024>
40000524:	030c2603          	lw	a2,48(s8)
40000528:	040c2683          	lw	a3,64(s8)
4000052c:	030c2703          	lw	a4,48(s8)
40000530:	00c7c7b3          	xor	a5,a5,a2
40000534:	00d7f7b3          	and	a5,a5,a3
40000538:	00e7c7b3          	xor	a5,a5,a4
4000053c:	02fc2823          	sw	a5,48(s8)
40000540:	ee5ff06f          	jal	zero,40000424 <irq0_handler+0xfc>
40000544:	420c2783          	lw	a5,1056(s8)
40000548:	430c2603          	lw	a2,1072(s8)
4000054c:	440c2683          	lw	a3,1088(s8)
40000550:	430c2703          	lw	a4,1072(s8)
40000554:	00c7c7b3          	xor	a5,a5,a2
40000558:	00d7f7b3          	and	a5,a5,a3
4000055c:	00e7c7b3          	xor	a5,a5,a4
40000560:	42fc2823          	sw	a5,1072(s8)
40000564:	ec1ff06f          	jal	zero,40000424 <irq0_handler+0xfc>

40000568 <irq_enable>:
40000568:	e10347b7          	lui	a5,0xe1034
4000056c:	1b200713          	addi	a4,zero,434
40000570:	00e7a823          	sw	a4,16(a5) # e1034010 <_stack+0x91034014>
40000574:	0007a023          	sw	zero,0(a5)
40000578:	e1004637          	lui	a2,0xe1004
4000057c:	00062783          	lw	a5,0(a2) # e1004000 <_stack+0x91004004>
40000580:	f0000737          	lui	a4,0xf0000
40000584:	00100693          	addi	a3,zero,1
40000588:	1507e793          	ori	a5,a5,336
4000058c:	00f62023          	sw	a5,0(a2)
40000590:	02d72023          	sw	a3,32(a4) # f0000020 <_stack+0xa0000024>
40000594:	02d72823          	sw	a3,48(a4)
40000598:	00008067          	jalr	zero,0(ra)

4000059c <irq_handler>:
4000059c:	ff010113          	addi	sp,sp,-16
400005a0:	00912223          	sw	s1,4(sp)
400005a4:	400014b7          	lui	s1,0x40001
400005a8:	00812423          	sw	s0,8(sp)
400005ac:	00112623          	sw	ra,12(sp)
400005b0:	00050413          	addi	s0,a0,0
400005b4:	64048493          	addi	s1,s1,1600 # 40001640 <irq_vector>
400005b8:	00147793          	andi	a5,s0,1
400005bc:	00145413          	srli	s0,s0,0x1
400005c0:	00078863          	beq	a5,zero,400005d0 <irq_handler+0x34>
400005c4:	0004a783          	lw	a5,0(s1)
400005c8:	00078463          	beq	a5,zero,400005d0 <irq_handler+0x34>
400005cc:	000780e7          	jalr	ra,0(a5)
400005d0:	00448493          	addi	s1,s1,4
400005d4:	fe0412e3          	bne	s0,zero,400005b8 <irq_handler+0x1c>
400005d8:	00c12083          	lw	ra,12(sp)
400005dc:	00812403          	lw	s0,8(sp)
400005e0:	00412483          	lw	s1,4(sp)
400005e4:	01010113          	addi	sp,sp,16
400005e8:	00008067          	jalr	zero,0(ra)

400005ec <exception_handler>:
400005ec:	00068713          	addi	a4,a3,0
400005f0:	00060693          	addi	a3,a2,0
400005f4:	00058613          	addi	a2,a1,0
400005f8:	00050593          	addi	a1,a0,0
400005fc:	40001537          	lui	a0,0x40001
40000600:	ff010113          	addi	sp,sp,-16
40000604:	44450513          	addi	a0,a0,1092 # 40001444 <_etext+0x90>
40000608:	00112623          	sw	ra,12(sp)
4000060c:	464000ef          	jal	ra,40000a70 <printf>
40000610:	00c12083          	lw	ra,12(sp)
40000614:	fff00513          	addi	a0,zero,-1
40000618:	01010113          	addi	sp,sp,16
4000061c:	00008067          	jalr	zero,0(ra)

40000620 <printchar.part.0>:
40000620:	e1030737          	lui	a4,0xe1030
40000624:	40072783          	lw	a5,1024(a4) # e1030400 <_stack+0x91030404>
40000628:	0027f793          	andi	a5,a5,2
4000062c:	fe079ce3          	bne	a5,zero,40000624 <printchar.part.0+0x4>
40000630:	e10347b7          	lui	a5,0xe1034
40000634:	00a7a023          	sw	a0,0(a5) # e1034000 <_stack+0x91034004>
40000638:	00008067          	jalr	zero,0(ra)

4000063c <vsprintf>:
4000063c:	fb010113          	addi	sp,sp,-80
40000640:	04812423          	sw	s0,72(sp)
40000644:	04112623          	sw	ra,76(sp)
40000648:	04912223          	sw	s1,68(sp)
4000064c:	05212023          	sw	s2,64(sp)
40000650:	03312e23          	sw	s3,60(sp)
40000654:	03412c23          	sw	s4,56(sp)
40000658:	03512a23          	sw	s5,52(sp)
4000065c:	03612823          	sw	s6,48(sp)
40000660:	03712623          	sw	s7,44(sp)
40000664:	03812423          	sw	s8,40(sp)
40000668:	03912223          	sw	s9,36(sp)
4000066c:	0005c783          	lbu	a5,0(a1)
40000670:	00c12223          	sw	a2,4(sp)
40000674:	00050413          	addi	s0,a0,0
40000678:	1c078c63          	beq	a5,zero,40000850 <vsprintf+0x214>
4000067c:	400019b7          	lui	s3,0x40001
40000680:	49898713          	addi	a4,s3,1176 # 40001498 <_etext+0xe4>
40000684:	40001937          	lui	s2,0x40001
40000688:	00e12623          	sw	a4,12(sp)
4000068c:	52c90713          	addi	a4,s2,1324 # 4000152c <_etext+0x178>
40000690:	00058a13          	addi	s4,a1,0
40000694:	00e12423          	sw	a4,8(sp)
40000698:	0300006f          	jal	zero,400006c8 <vsprintf+0x8c>
4000069c:	2e040a63          	beq	s0,zero,40000990 <vsprintf+0x354>
400006a0:	00042683          	lw	a3,0(s0)
400006a4:	000b8713          	addi	a4,s7,0
400006a8:	000a0b93          	addi	s7,s4,0
400006ac:	00f68023          	sb	a5,0(a3)
400006b0:	00042783          	lw	a5,0(s0)
400006b4:	00070a13          	addi	s4,a4,0
400006b8:	00178793          	addi	a5,a5,1
400006bc:	00f42023          	sw	a5,0(s0)
400006c0:	001bc783          	lbu	a5,1(s7)
400006c4:	18078663          	beq	a5,zero,40000850 <vsprintf+0x214>
400006c8:	02500713          	addi	a4,zero,37
400006cc:	001a0b93          	addi	s7,s4,1
400006d0:	fce796e3          	bne	a5,a4,4000069c <vsprintf+0x60>
400006d4:	001a4783          	lbu	a5,1(s4)
400006d8:	03000713          	addi	a4,zero,48
400006dc:	02000993          	addi	s3,zero,32
400006e0:	00e79863          	bne	a5,a4,400006f0 <vsprintf+0xb4>
400006e4:	002a4783          	lbu	a5,2(s4)
400006e8:	002a0b93          	addi	s7,s4,2
400006ec:	03000993          	addi	s3,zero,48
400006f0:	fd078713          	addi	a4,a5,-48
400006f4:	0ff77713          	andi	a4,a4,255
400006f8:	00900613          	addi	a2,zero,9
400006fc:	fff00b13          	addi	s6,zero,-1
40000700:	2ae67463          	bgeu	a2,a4,400009a8 <vsprintf+0x36c>
40000704:	06c00713          	addi	a4,zero,108
40000708:	001b8a13          	addi	s4,s7,1
4000070c:	00e79a63          	bne	a5,a4,40000720 <vsprintf+0xe4>
40000710:	002b8713          	addi	a4,s7,2
40000714:	001bc783          	lbu	a5,1(s7)
40000718:	000a0b93          	addi	s7,s4,0
4000071c:	00070a13          	addi	s4,a4,0
40000720:	fa878793          	addi	a5,a5,-88
40000724:	0ff7f793          	andi	a5,a5,255
40000728:	02000713          	addi	a4,zero,32
4000072c:	f8f76ae3          	bltu	a4,a5,400006c0 <vsprintf+0x84>
40000730:	00c12703          	lw	a4,12(sp)
40000734:	00279793          	slli	a5,a5,0x2
40000738:	00e787b3          	add	a5,a5,a4
4000073c:	0007a783          	lw	a5,0(a5)
40000740:	00078067          	jalr	zero,0(a5)
40000744:	00412783          	lw	a5,4(sp)
40000748:	00a00c93          	addi	s9,zero,10
4000074c:	0007a903          	lw	s2,0(a5)
40000750:	00478793          	addi	a5,a5,4
40000754:	00f12223          	sw	a5,4(sp)
40000758:	18091663          	bne	s2,zero,400008e4 <vsprintf+0x2a8>
4000075c:	03000793          	addi	a5,zero,48
40000760:	00100a93          	addi	s5,zero,1
40000764:	00f10823          	sb	a5,16(sp)
40000768:	03000493          	addi	s1,zero,48
4000076c:	00000c13          	addi	s8,zero,0
40000770:	415b0ab3          	sub	s5,s6,s5
40000774:	03505263          	bge	zero,s5,40000798 <vsprintf+0x15c>
40000778:	20040463          	beq	s0,zero,40000980 <vsprintf+0x344>
4000077c:	00042783          	lw	a5,0(s0)
40000780:	fffa8a93          	addi	s5,s5,-1
40000784:	01378023          	sb	s3,0(a5)
40000788:	00042783          	lw	a5,0(s0)
4000078c:	00178793          	addi	a5,a5,1
40000790:	00f42023          	sw	a5,0(s0)
40000794:	ff5042e3          	blt	zero,s5,40000778 <vsprintf+0x13c>
40000798:	02040a63          	beq	s0,zero,400007cc <vsprintf+0x190>
4000079c:	00042783          	lw	a5,0(s0)
400007a0:	00978023          	sb	s1,0(a5)
400007a4:	00042783          	lw	a5,0(s0)
400007a8:	00178793          	addi	a5,a5,1
400007ac:	00f42023          	sw	a5,0(s0)
400007b0:	fffc0793          	addi	a5,s8,-1
400007b4:	f18056e3          	bge	zero,s8,400006c0 <vsprintf+0x84>
400007b8:	01010713          	addi	a4,sp,16
400007bc:	00f70733          	add	a4,a4,a5
400007c0:	00074483          	lbu	s1,0(a4)
400007c4:	00078c13          	addi	s8,a5,0
400007c8:	fc041ae3          	bne	s0,zero,4000079c <vsprintf+0x160>
400007cc:	fe0482e3          	beq	s1,zero,400007b0 <vsprintf+0x174>
400007d0:	00048513          	addi	a0,s1,0
400007d4:	e4dff0ef          	jal	ra,40000620 <printchar.part.0>
400007d8:	fd9ff06f          	jal	zero,400007b0 <vsprintf+0x174>
400007dc:	00412783          	lw	a5,4(sp)
400007e0:	0007aa83          	lw	s5,0(a5)
400007e4:	00478493          	addi	s1,a5,4
400007e8:	1e0a8863          	beq	s5,zero,400009d8 <vsprintf+0x39c>
400007ec:	000ac503          	lbu	a0,0(s5)
400007f0:	02050863          	beq	a0,zero,40000820 <vsprintf+0x1e4>
400007f4:	040b0863          	beq	s6,zero,40000844 <vsprintf+0x208>
400007f8:	20040263          	beq	s0,zero,400009fc <vsprintf+0x3c0>
400007fc:	00042783          	lw	a5,0(s0)
40000800:	00a78023          	sb	a0,0(a5)
40000804:	00042783          	lw	a5,0(s0)
40000808:	00178793          	addi	a5,a5,1
4000080c:	00f42023          	sw	a5,0(s0)
40000810:	001a8a93          	addi	s5,s5,1
40000814:	000ac503          	lbu	a0,0(s5)
40000818:	fffb0b13          	addi	s6,s6,-1
4000081c:	fc051ce3          	bne	a0,zero,400007f4 <vsprintf+0x1b8>
40000820:	03605263          	bge	zero,s6,40000844 <vsprintf+0x208>
40000824:	1e040063          	beq	s0,zero,40000a04 <vsprintf+0x3c8>
40000828:	00042783          	lw	a5,0(s0)
4000082c:	fffb0b13          	addi	s6,s6,-1
40000830:	01378023          	sb	s3,0(a5)
40000834:	00042783          	lw	a5,0(s0)
40000838:	00178793          	addi	a5,a5,1
4000083c:	00f42023          	sw	a5,0(s0)
40000840:	ff6042e3          	blt	zero,s6,40000824 <vsprintf+0x1e8>
40000844:	001bc783          	lbu	a5,1(s7)
40000848:	00912223          	sw	s1,4(sp)
4000084c:	e6079ee3          	bne	a5,zero,400006c8 <vsprintf+0x8c>
40000850:	00040c63          	beq	s0,zero,40000868 <vsprintf+0x22c>
40000854:	00042783          	lw	a5,0(s0)
40000858:	00078023          	sb	zero,0(a5)
4000085c:	00042783          	lw	a5,0(s0)
40000860:	00178793          	addi	a5,a5,1
40000864:	00f42023          	sw	a5,0(s0)
40000868:	04c12083          	lw	ra,76(sp)
4000086c:	04812403          	lw	s0,72(sp)
40000870:	04412483          	lw	s1,68(sp)
40000874:	04012903          	lw	s2,64(sp)
40000878:	03c12983          	lw	s3,60(sp)
4000087c:	03812a03          	lw	s4,56(sp)
40000880:	03412a83          	lw	s5,52(sp)
40000884:	03012b03          	lw	s6,48(sp)
40000888:	02c12b83          	lw	s7,44(sp)
4000088c:	02812c03          	lw	s8,40(sp)
40000890:	02412c83          	lw	s9,36(sp)
40000894:	00000513          	addi	a0,zero,0
40000898:	05010113          	addi	sp,sp,80
4000089c:	00008067          	jalr	zero,0(ra)
400008a0:	00412783          	lw	a5,4(sp)
400008a4:	00a00c93          	addi	s9,zero,10
400008a8:	0007a903          	lw	s2,0(a5)
400008ac:	00478a93          	addi	s5,a5,4
400008b0:	01512223          	sw	s5,4(sp)
400008b4:	ea0952e3          	bge	s2,zero,40000758 <vsprintf+0x11c>
400008b8:	41200933          	sub	s2,zero,s2
400008bc:	14040c63          	beq	s0,zero,40000a14 <vsprintf+0x3d8>
400008c0:	00042703          	lw	a4,0(s0)
400008c4:	02d00613          	addi	a2,zero,45
400008c8:	00c70023          	sb	a2,0(a4)
400008cc:	00042703          	lw	a4,0(s0)
400008d0:	00170713          	addi	a4,a4,1
400008d4:	00e42023          	sw	a4,0(s0)
400008d8:	fffb0b13          	addi	s6,s6,-1
400008dc:	01512223          	sw	s5,4(sp)
400008e0:	00a00c93          	addi	s9,zero,10
400008e4:	00000c13          	addi	s8,zero,0
400008e8:	0080006f          	jal	zero,400008f0 <vsprintf+0x2b4>
400008ec:	000a8c13          	addi	s8,s5,0
400008f0:	000c8593          	addi	a1,s9,0
400008f4:	00090513          	addi	a0,s2,0
400008f8:	258000ef          	jal	ra,40000b50 <__umodsi3>
400008fc:	00812783          	lw	a5,8(sp)
40000900:	001c0a93          	addi	s5,s8,1
40000904:	000c8593          	addi	a1,s9,0
40000908:	00a78533          	add	a0,a5,a0
4000090c:	00054483          	lbu	s1,0(a0)
40000910:	01010793          	addi	a5,sp,16
40000914:	015787b3          	add	a5,a5,s5
40000918:	00090513          	addi	a0,s2,0
4000091c:	fe978fa3          	sb	s1,-1(a5)
40000920:	01212023          	sw	s2,0(sp)
40000924:	1c4000ef          	jal	ra,40000ae8 <__udivsi3>
40000928:	00012603          	lw	a2,0(sp)
4000092c:	00050913          	addi	s2,a0,0
40000930:	fb967ee3          	bgeu	a2,s9,400008ec <vsprintf+0x2b0>
40000934:	415b0ab3          	sub	s5,s6,s5
40000938:	e3dff06f          	jal	zero,40000774 <vsprintf+0x138>
4000093c:	00412783          	lw	a5,4(sp)
40000940:	00478713          	addi	a4,a5,4
40000944:	0007a783          	lw	a5,0(a5)
40000948:	0a040063          	beq	s0,zero,400009e8 <vsprintf+0x3ac>
4000094c:	00042683          	lw	a3,0(s0)
40000950:	00e12223          	sw	a4,4(sp)
40000954:	00f68023          	sb	a5,0(a3)
40000958:	00042783          	lw	a5,0(s0)
4000095c:	00178793          	addi	a5,a5,1
40000960:	00f42023          	sw	a5,0(s0)
40000964:	d5dff06f          	jal	zero,400006c0 <vsprintf+0x84>
40000968:	00412783          	lw	a5,4(sp)
4000096c:	01000c93          	addi	s9,zero,16
40000970:	0007a903          	lw	s2,0(a5)
40000974:	00478793          	addi	a5,a5,4
40000978:	00f12223          	sw	a5,4(sp)
4000097c:	dddff06f          	jal	zero,40000758 <vsprintf+0x11c>
40000980:	00098513          	addi	a0,s3,0
40000984:	c9dff0ef          	jal	ra,40000620 <printchar.part.0>
40000988:	fffa8a93          	addi	s5,s5,-1
4000098c:	e09ff06f          	jal	zero,40000794 <vsprintf+0x158>
40000990:	00078513          	addi	a0,a5,0
40000994:	c8dff0ef          	jal	ra,40000620 <printchar.part.0>
40000998:	000b8793          	addi	a5,s7,0
4000099c:	000a0b93          	addi	s7,s4,0
400009a0:	00078a13          	addi	s4,a5,0
400009a4:	d1dff06f          	jal	zero,400006c0 <vsprintf+0x84>
400009a8:	00000b13          	addi	s6,zero,0
400009ac:	002b1713          	slli	a4,s6,0x2
400009b0:	01670733          	add	a4,a4,s6
400009b4:	001b8b93          	addi	s7,s7,1
400009b8:	00171713          	slli	a4,a4,0x1
400009bc:	00f70733          	add	a4,a4,a5
400009c0:	000bc783          	lbu	a5,0(s7)
400009c4:	fd070b13          	addi	s6,a4,-48
400009c8:	fd078713          	addi	a4,a5,-48
400009cc:	0ff77713          	andi	a4,a4,255
400009d0:	fce67ee3          	bgeu	a2,a4,400009ac <vsprintf+0x370>
400009d4:	d31ff06f          	jal	zero,40000704 <vsprintf+0xc8>
400009d8:	40001ab7          	lui	s5,0x40001
400009dc:	524a8a93          	addi	s5,s5,1316 # 40001524 <_etext+0x170>
400009e0:	03c00513          	addi	a0,zero,60
400009e4:	e11ff06f          	jal	zero,400007f4 <vsprintf+0x1b8>
400009e8:	0ff7f513          	andi	a0,a5,255
400009ec:	00e12223          	sw	a4,4(sp)
400009f0:	cc0508e3          	beq	a0,zero,400006c0 <vsprintf+0x84>
400009f4:	c2dff0ef          	jal	ra,40000620 <printchar.part.0>
400009f8:	cc9ff06f          	jal	zero,400006c0 <vsprintf+0x84>
400009fc:	c25ff0ef          	jal	ra,40000620 <printchar.part.0>
40000a00:	e11ff06f          	jal	zero,40000810 <vsprintf+0x1d4>
40000a04:	00098513          	addi	a0,s3,0
40000a08:	c19ff0ef          	jal	ra,40000620 <printchar.part.0>
40000a0c:	fffb0b13          	addi	s6,s6,-1
40000a10:	e31ff06f          	jal	zero,40000840 <vsprintf+0x204>
40000a14:	02d00513          	addi	a0,zero,45
40000a18:	c09ff0ef          	jal	ra,40000620 <printchar.part.0>
40000a1c:	ebdff06f          	jal	zero,400008d8 <vsprintf+0x29c>

40000a20 <puts>:
40000a20:	00054683          	lbu	a3,0(a0)
40000a24:	02068463          	beq	a3,zero,40000a4c <puts+0x2c>
40000a28:	e1030737          	lui	a4,0xe1030
40000a2c:	e1034637          	lui	a2,0xe1034
40000a30:	00150513          	addi	a0,a0,1
40000a34:	40072783          	lw	a5,1024(a4) # e1030400 <_stack+0x91030404>
40000a38:	0027f793          	andi	a5,a5,2
40000a3c:	fe079ce3          	bne	a5,zero,40000a34 <puts+0x14>
40000a40:	00d62023          	sw	a3,0(a2) # e1034000 <_stack+0x91034004>
40000a44:	00054683          	lbu	a3,0(a0)
40000a48:	fe0694e3          	bne	a3,zero,40000a30 <puts+0x10>
40000a4c:	e1030737          	lui	a4,0xe1030
40000a50:	40072783          	lw	a5,1024(a4) # e1030400 <_stack+0x91030404>
40000a54:	0027f793          	andi	a5,a5,2
40000a58:	fe079ce3          	bne	a5,zero,40000a50 <puts+0x30>
40000a5c:	e10347b7          	lui	a5,0xe1034
40000a60:	00a00713          	addi	a4,zero,10
40000a64:	00e7a023          	sw	a4,0(a5) # e1034000 <_stack+0x91034004>
40000a68:	00000513          	addi	a0,zero,0
40000a6c:	00008067          	jalr	zero,0(ra)

40000a70 <printf>:
40000a70:	fc010113          	addi	sp,sp,-64
40000a74:	02410313          	addi	t1,sp,36
40000a78:	02b12223          	sw	a1,36(sp)
40000a7c:	02c12423          	sw	a2,40(sp)
40000a80:	00050593          	addi	a1,a0,0
40000a84:	00030613          	addi	a2,t1,0
40000a88:	00000513          	addi	a0,zero,0
40000a8c:	00112e23          	sw	ra,28(sp)
40000a90:	02d12623          	sw	a3,44(sp)
40000a94:	02e12823          	sw	a4,48(sp)
40000a98:	02f12a23          	sw	a5,52(sp)
40000a9c:	03012c23          	sw	a6,56(sp)
40000aa0:	03112e23          	sw	a7,60(sp)
40000aa4:	00612623          	sw	t1,12(sp)
40000aa8:	b95ff0ef          	jal	ra,4000063c <vsprintf>
40000aac:	01c12083          	lw	ra,28(sp)
40000ab0:	04010113          	addi	sp,sp,64
40000ab4:	00008067          	jalr	zero,0(ra)

40000ab8 <__mulsi3>:
40000ab8:	02058463          	beq	a1,zero,40000ae0 <__mulsi3+0x28>
40000abc:	00000713          	addi	a4,zero,0
40000ac0:	0015f793          	andi	a5,a1,1
40000ac4:	0015d593          	srli	a1,a1,0x1
40000ac8:	00078463          	beq	a5,zero,40000ad0 <__mulsi3+0x18>
40000acc:	00a70733          	add	a4,a4,a0
40000ad0:	00151513          	slli	a0,a0,0x1
40000ad4:	fe0596e3          	bne	a1,zero,40000ac0 <__mulsi3+0x8>
40000ad8:	00070513          	addi	a0,a4,0
40000adc:	00008067          	jalr	zero,0(ra)
40000ae0:	00000513          	addi	a0,zero,0
40000ae4:	00008067          	jalr	zero,0(ra)

40000ae8 <__udivsi3>:
40000ae8:	00050693          	addi	a3,a0,0
40000aec:	04a5fc63          	bgeu	a1,a0,40000b44 <__udivsi3+0x5c>
40000af0:	0405ca63          	blt	a1,zero,40000b44 <__udivsi3+0x5c>
40000af4:	02000713          	addi	a4,zero,32
40000af8:	00100793          	addi	a5,zero,1
40000afc:	00c0006f          	jal	zero,40000b08 <__udivsi3+0x20>
40000b00:	02070e63          	beq	a4,zero,40000b3c <__udivsi3+0x54>
40000b04:	0005cc63          	blt	a1,zero,40000b1c <__udivsi3+0x34>
40000b08:	00159593          	slli	a1,a1,0x1
40000b0c:	fff70713          	addi	a4,a4,-1
40000b10:	00179793          	slli	a5,a5,0x1
40000b14:	fed5e6e3          	bltu	a1,a3,40000b00 <__udivsi3+0x18>
40000b18:	02078263          	beq	a5,zero,40000b3c <__udivsi3+0x54>
40000b1c:	00000513          	addi	a0,zero,0
40000b20:	00b6e663          	bltu	a3,a1,40000b2c <__udivsi3+0x44>
40000b24:	40b686b3          	sub	a3,a3,a1
40000b28:	00f56533          	or	a0,a0,a5
40000b2c:	0017d793          	srli	a5,a5,0x1
40000b30:	0015d593          	srli	a1,a1,0x1
40000b34:	fe0796e3          	bne	a5,zero,40000b20 <__udivsi3+0x38>
40000b38:	00008067          	jalr	zero,0(ra)
40000b3c:	00000513          	addi	a0,zero,0
40000b40:	00008067          	jalr	zero,0(ra)
40000b44:	00100793          	addi	a5,zero,1
40000b48:	00000513          	addi	a0,zero,0
40000b4c:	fd5ff06f          	jal	zero,40000b20 <__udivsi3+0x38>

40000b50 <__umodsi3>:
40000b50:	04a5f663          	bgeu	a1,a0,40000b9c <__umodsi3+0x4c>
40000b54:	0405c463          	blt	a1,zero,40000b9c <__umodsi3+0x4c>
40000b58:	02000713          	addi	a4,zero,32
40000b5c:	00100793          	addi	a5,zero,1
40000b60:	00c0006f          	jal	zero,40000b6c <__umodsi3+0x1c>
40000b64:	02070863          	beq	a4,zero,40000b94 <__umodsi3+0x44>
40000b68:	0005cc63          	blt	a1,zero,40000b80 <__umodsi3+0x30>
40000b6c:	00159593          	slli	a1,a1,0x1
40000b70:	fff70713          	addi	a4,a4,-1
40000b74:	00179793          	slli	a5,a5,0x1
40000b78:	fea5e6e3          	bltu	a1,a0,40000b64 <__umodsi3+0x14>
40000b7c:	00078e63          	beq	a5,zero,40000b98 <__umodsi3+0x48>
40000b80:	0017d793          	srli	a5,a5,0x1
40000b84:	00b56463          	bltu	a0,a1,40000b8c <__umodsi3+0x3c>
40000b88:	40b50533          	sub	a0,a0,a1
40000b8c:	0015d593          	srli	a1,a1,0x1
40000b90:	fe0798e3          	bne	a5,zero,40000b80 <__umodsi3+0x30>
40000b94:	00008067          	jalr	zero,0(ra)
40000b98:	00008067          	jalr	zero,0(ra)
40000b9c:	00100793          	addi	a5,zero,1
40000ba0:	fe1ff06f          	jal	zero,40000b80 <__umodsi3+0x30>

40000ba4 <__addsf3>:
40000ba4:	00050713          	addi	a4,a0,0
40000ba8:	00050813          	addi	a6,a0,0
40000bac:	00058893          	addi	a7,a1,0
40000bb0:	0c050a63          	beq	a0,zero,40000c84 <__addsf3+0xe0>
40000bb4:	0c058a63          	beq	a1,zero,40000c88 <__addsf3+0xe4>
40000bb8:	4175d613          	srai	a2,a1,0x17
40000bbc:	41755693          	srai	a3,a0,0x17
40000bc0:	0ff67613          	andi	a2,a2,255
40000bc4:	0ff6f693          	andi	a3,a3,255
40000bc8:	01960793          	addi	a5,a2,25
40000bcc:	0ad7ce63          	blt	a5,a3,40000c88 <__addsf3+0xe4>
40000bd0:	01968793          	addi	a5,a3,25
40000bd4:	00058513          	addi	a0,a1,0
40000bd8:	0ac7c863          	blt	a5,a2,40000c88 <__addsf3+0xe4>
40000bdc:	20000537          	lui	a0,0x20000
40000be0:	fc050793          	addi	a5,a0,-64 # 1fffffc0 <_entry-0x20000040>
40000be4:	00671713          	slli	a4,a4,0x6
40000be8:	00659593          	slli	a1,a1,0x6
40000bec:	00f5f5b3          	and	a1,a1,a5
40000bf0:	00f77733          	and	a4,a4,a5
40000bf4:	00a767b3          	or	a5,a4,a0
40000bf8:	00a5e5b3          	or	a1,a1,a0
40000bfc:	08084c63          	blt	a6,zero,40000c94 <__addsf3+0xf0>
40000c00:	0808c663          	blt	a7,zero,40000c8c <__addsf3+0xe8>
40000c04:	08d65e63          	bge	a2,a3,40000ca0 <__addsf3+0xfc>
40000c08:	40c68633          	sub	a2,a3,a2
40000c0c:	40c5d5b3          	sra	a1,a1,a2
40000c10:	00b787b3          	add	a5,a5,a1
40000c14:	0807ce63          	blt	a5,zero,40000cb0 <__addsf3+0x10c>
40000c18:	00000513          	addi	a0,zero,0
40000c1c:	06078663          	beq	a5,zero,40000c88 <__addsf3+0xe4>
40000c20:	00000513          	addi	a0,zero,0
40000c24:	e0000737          	lui	a4,0xe0000
40000c28:	00e7f733          	and	a4,a5,a4
40000c2c:	e0000637          	lui	a2,0xe0000
40000c30:	08071663          	bne	a4,zero,40000cbc <__addsf3+0x118>
40000c34:	00179793          	slli	a5,a5,0x1
40000c38:	00c7f733          	and	a4,a5,a2
40000c3c:	fff68693          	addi	a3,a3,-1
40000c40:	fe070ae3          	beq	a4,zero,40000c34 <__addsf3+0x90>
40000c44:	0407f713          	andi	a4,a5,64
40000c48:	00e03733          	sltu	a4,zero,a4
40000c4c:	01f70713          	addi	a4,a4,31 # e000001f <_stack+0x90000023>
40000c50:	00e787b3          	add	a5,a5,a4
40000c54:	00179713          	slli	a4,a5,0x1
40000c58:	00075663          	bge	a4,zero,40000c64 <__addsf3+0xc0>
40000c5c:	4017d793          	srai	a5,a5,0x1
40000c60:	00168693          	addi	a3,a3,1
40000c64:	01769693          	slli	a3,a3,0x17
40000c68:	00a6e6b3          	or	a3,a3,a0
40000c6c:	ff800537          	lui	a0,0xff800
40000c70:	4067d793          	srai	a5,a5,0x6
40000c74:	fff50513          	addi	a0,a0,-1 # ff7fffff <_stack+0xaf800003>
40000c78:	00a7f533          	and	a0,a5,a0
40000c7c:	00a6e533          	or	a0,a3,a0
40000c80:	00008067          	jalr	zero,0(ra)
40000c84:	00058513          	addi	a0,a1,0
40000c88:	00008067          	jalr	zero,0(ra)
40000c8c:	40b005b3          	sub	a1,zero,a1
40000c90:	f75ff06f          	jal	zero,40000c04 <__addsf3+0x60>
40000c94:	40f007b3          	sub	a5,zero,a5
40000c98:	f608d6e3          	bge	a7,zero,40000c04 <__addsf3+0x60>
40000c9c:	ff1ff06f          	jal	zero,40000c8c <__addsf3+0xe8>
40000ca0:	40d606b3          	sub	a3,a2,a3
40000ca4:	40d7d7b3          	sra	a5,a5,a3
40000ca8:	00060693          	addi	a3,a2,0 # e0000000 <_stack+0x90000004>
40000cac:	f65ff06f          	jal	zero,40000c10 <__addsf3+0x6c>
40000cb0:	40f007b3          	sub	a5,zero,a5
40000cb4:	80000537          	lui	a0,0x80000
40000cb8:	f6dff06f          	jal	zero,40000c24 <__addsf3+0x80>
40000cbc:	00179713          	slli	a4,a5,0x1
40000cc0:	f80752e3          	bge	a4,zero,40000c44 <__addsf3+0xa0>
40000cc4:	4017d793          	srai	a5,a5,0x1
40000cc8:	00168693          	addi	a3,a3,1
40000ccc:	f79ff06f          	jal	zero,40000c44 <__addsf3+0xa0>

40000cd0 <__subsf3>:
40000cd0:	02058063          	beq	a1,zero,40000cf0 <__subsf3+0x20>
40000cd4:	00050863          	beq	a0,zero,40000ce4 <__subsf3+0x14>
40000cd8:	800007b7          	lui	a5,0x80000
40000cdc:	00b7c5b3          	xor	a1,a5,a1
40000ce0:	ec5ff06f          	jal	zero,40000ba4 <__addsf3>
40000ce4:	80000537          	lui	a0,0x80000
40000ce8:	00b54533          	xor	a0,a0,a1
40000cec:	00008067          	jalr	zero,0(ra)
40000cf0:	00008067          	jalr	zero,0(ra)

40000cf4 <__ltsf2>:
40000cf4:	00054a63          	blt	a0,zero,40000d08 <__ltsf2+0x14>
40000cf8:	00b52533          	slt	a0,a0,a1
40000cfc:	40a007b3          	sub	a5,zero,a0
40000d00:	00078513          	addi	a0,a5,0 # 80000000 <_stack+0x30000004>
40000d04:	00008067          	jalr	zero,0(ra)
40000d08:	fff00793          	addi	a5,zero,-1
40000d0c:	fe05dae3          	bge	a1,zero,40000d00 <__ltsf2+0xc>
40000d10:	800007b7          	lui	a5,0x80000
40000d14:	00b7c5b3          	xor	a1,a5,a1
40000d18:	00a7c533          	xor	a0,a5,a0
40000d1c:	00a5a533          	slt	a0,a1,a0
40000d20:	40a007b3          	sub	a5,zero,a0
40000d24:	00078513          	addi	a0,a5,0 # 80000000 <_stack+0x30000004>
40000d28:	00008067          	jalr	zero,0(ra)

40000d2c <__lesf2>:
40000d2c:	00050793          	addi	a5,a0,0 # 80000000 <_stack+0x30000004>
40000d30:	00054863          	blt	a0,zero,40000d40 <__lesf2+0x14>
40000d34:	02b54a63          	blt	a0,a1,40000d68 <__lesf2+0x3c>
40000d38:	00a5a533          	slt	a0,a1,a0
40000d3c:	00008067          	jalr	zero,0(ra)
40000d40:	00000513          	addi	a0,zero,0
40000d44:	0005c463          	blt	a1,zero,40000d4c <__lesf2+0x20>
40000d48:	00008067          	jalr	zero,0(ra)
40000d4c:	80000737          	lui	a4,0x80000
40000d50:	00f747b3          	xor	a5,a4,a5
40000d54:	00b745b3          	xor	a1,a4,a1
40000d58:	00f5c663          	blt	a1,a5,40000d64 <__lesf2+0x38>
40000d5c:	00b7a533          	slt	a0,a5,a1
40000d60:	00008067          	jalr	zero,0(ra)
40000d64:	00008067          	jalr	zero,0(ra)
40000d68:	00000513          	addi	a0,zero,0
40000d6c:	00008067          	jalr	zero,0(ra)

40000d70 <__nesf2>:
40000d70:	40b50533          	sub	a0,a0,a1
40000d74:	00a03533          	sltu	a0,zero,a0
40000d78:	00008067          	jalr	zero,0(ra)

40000d7c <__mulsf3>:
40000d7c:	00000793          	addi	a5,zero,0
40000d80:	10050463          	beq	a0,zero,40000e88 <__mulsf3+0x10c>
40000d84:	10058263          	beq	a1,zero,40000e88 <__mulsf3+0x10c>
40000d88:	fe010113          	addi	sp,sp,-32
40000d8c:	000087b7          	lui	a5,0x8
40000d90:	fff78713          	addi	a4,a5,-1 # 7fff <_entry-0x3fff8001>
40000d94:	01312623          	sw	s3,12(sp)
40000d98:	01412423          	sw	s4,8(sp)
40000d9c:	40855993          	srai	s3,a0,0x8
40000da0:	4085da13          	srai	s4,a1,0x8
40000da4:	00e9f9b3          	and	s3,s3,a4
40000da8:	00ea7a33          	and	s4,s4,a4
40000dac:	41755713          	srai	a4,a0,0x17
40000db0:	00f9e9b3          	or	s3,s3,a5
40000db4:	00fa6a33          	or	s4,s4,a5
40000db8:	00812c23          	sw	s0,24(sp)
40000dbc:	01212823          	sw	s2,16(sp)
40000dc0:	4175d413          	srai	s0,a1,0x17
40000dc4:	00058913          	addi	s2,a1,0
40000dc8:	0ff77713          	andi	a4,a4,255
40000dcc:	00a947b3          	xor	a5,s2,a0
40000dd0:	f8270713          	addi	a4,a4,-126 # 7fffff82 <_stack+0x2fffff86>
40000dd4:	00912a23          	sw	s1,20(sp)
40000dd8:	01512223          	sw	s5,4(sp)
40000ddc:	00050493          	addi	s1,a0,0
40000de0:	000a0593          	addi	a1,s4,0
40000de4:	0ff47413          	andi	s0,s0,255
40000de8:	00098513          	addi	a0,s3,0
40000dec:	80000ab7          	lui	s5,0x80000
40000df0:	00e40433          	add	s0,s0,a4
40000df4:	00112e23          	sw	ra,28(sp)
40000df8:	0157fab3          	and	s5,a5,s5
40000dfc:	01612023          	sw	s6,0(sp)
40000e00:	cb9ff0ef          	jal	ra,40000ab8 <__mulsi3>
40000e04:	00050b13          	addi	s6,a0,0
40000e08:	000a0593          	addi	a1,s4,0
40000e0c:	0ff4f513          	andi	a0,s1,255
40000e10:	ca9ff0ef          	jal	ra,40000ab8 <__mulsi3>
40000e14:	0ff97913          	andi	s2,s2,255
40000e18:	40855493          	srai	s1,a0,0x8
40000e1c:	00098593          	addi	a1,s3,0
40000e20:	00090513          	addi	a0,s2,0
40000e24:	c95ff0ef          	jal	ra,40000ab8 <__mulsi3>
40000e28:	016484b3          	add	s1,s1,s6
40000e2c:	40855513          	srai	a0,a0,0x8
40000e30:	00950533          	add	a0,a0,s1
40000e34:	00255713          	srli	a4,a0,0x2
40000e38:	04055c63          	bge	a0,zero,40000e90 <__mulsf3+0x114>
40000e3c:	02070513          	addi	a0,a4,32
40000e40:	00655513          	srli	a0,a0,0x6
40000e44:	ff800737          	lui	a4,0xff800
40000e48:	01741793          	slli	a5,s0,0x17
40000e4c:	01c12083          	lw	ra,28(sp)
40000e50:	01812403          	lw	s0,24(sp)
40000e54:	fff70713          	addi	a4,a4,-1 # ff7fffff <_stack+0xaf800003>
40000e58:	0157e7b3          	or	a5,a5,s5
40000e5c:	00e57533          	and	a0,a0,a4
40000e60:	00a7e7b3          	or	a5,a5,a0
40000e64:	01412483          	lw	s1,20(sp)
40000e68:	01012903          	lw	s2,16(sp)
40000e6c:	00c12983          	lw	s3,12(sp)
40000e70:	00812a03          	lw	s4,8(sp)
40000e74:	00412a83          	lw	s5,4(sp)
40000e78:	00012b03          	lw	s6,0(sp)
40000e7c:	00078513          	addi	a0,a5,0
40000e80:	02010113          	addi	sp,sp,32
40000e84:	00008067          	jalr	zero,0(ra)
40000e88:	00078513          	addi	a0,a5,0
40000e8c:	00008067          	jalr	zero,0(ra)
40000e90:	01070713          	addi	a4,a4,16
40000e94:	00575513          	srli	a0,a4,0x5
40000e98:	00751793          	slli	a5,a0,0x7
40000e9c:	0007d663          	bge	a5,zero,40000ea8 <__mulsf3+0x12c>
40000ea0:	00675513          	srli	a0,a4,0x6
40000ea4:	fa1ff06f          	jal	zero,40000e44 <__mulsf3+0xc8>
40000ea8:	fff40413          	addi	s0,s0,-1
40000eac:	f99ff06f          	jal	zero,40000e44 <__mulsf3+0xc8>

40000eb0 <__divsf3>:
40000eb0:	00050793          	addi	a5,a0,0
40000eb4:	00b548b3          	xor	a7,a0,a1
40000eb8:	0a058263          	beq	a1,zero,40000f5c <__divsf3+0xac>
40000ebc:	00000513          	addi	a0,zero,0
40000ec0:	08078c63          	beq	a5,zero,40000f58 <__divsf3+0xa8>
40000ec4:	00800637          	lui	a2,0x800
40000ec8:	fff60713          	addi	a4,a2,-1 # 7fffff <_entry-0x3f800001>
40000ecc:	4177d693          	srai	a3,a5,0x17
40000ed0:	4175d513          	srai	a0,a1,0x17
40000ed4:	00f777b3          	and	a5,a4,a5
40000ed8:	0ff6f693          	andi	a3,a3,255
40000edc:	0ff57513          	andi	a0,a0,255
40000ee0:	00b77733          	and	a4,a4,a1
40000ee4:	40a686b3          	sub	a3,a3,a0
40000ee8:	00c7e7b3          	or	a5,a5,a2
40000eec:	00c76633          	or	a2,a4,a2
40000ef0:	07e68813          	addi	a6,a3,126
40000ef4:	06c7cc63          	blt	a5,a2,40000f6c <__divsf3+0xbc>
40000ef8:	07f68813          	addi	a6,a3,127
40000efc:	01900713          	addi	a4,zero,25
40000f00:	010006b7          	lui	a3,0x1000
40000f04:	00000593          	addi	a1,zero,0
40000f08:	fff70713          	addi	a4,a4,-1
40000f0c:	00c7c663          	blt	a5,a2,40000f18 <__divsf3+0x68>
40000f10:	00d5e5b3          	or	a1,a1,a3
40000f14:	40c787b3          	sub	a5,a5,a2
40000f18:	00179793          	slli	a5,a5,0x1
40000f1c:	4016d693          	srai	a3,a3,0x1
40000f20:	fe0714e3          	bne	a4,zero,40000f08 <__divsf3+0x58>
40000f24:	800007b7          	lui	a5,0x80000
40000f28:	00f8f8b3          	and	a7,a7,a5
40000f2c:	00158513          	addi	a0,a1,1
40000f30:	ff8007b7          	lui	a5,0xff800
40000f34:	fff78793          	addi	a5,a5,-1 # ff7fffff <_stack+0xaf800003>
40000f38:	40155513          	srai	a0,a0,0x1
40000f3c:	01781813          	slli	a6,a6,0x17
40000f40:	01186833          	or	a6,a6,a7
40000f44:	00f57533          	and	a0,a0,a5
40000f48:	00a86533          	or	a0,a6,a0
40000f4c:	00008067          	jalr	zero,0(ra)
40000f50:	400017b7          	lui	a5,0x40001
40000f54:	5207a503          	lw	a0,1312(a5) # 40001520 <_etext+0x16c>
40000f58:	00008067          	jalr	zero,0(ra)
40000f5c:	fe08cae3          	blt	a7,zero,40000f50 <__divsf3+0xa0>
40000f60:	400017b7          	lui	a5,0x40001
40000f64:	51c7a503          	lw	a0,1308(a5) # 4000151c <_etext+0x168>
40000f68:	00008067          	jalr	zero,0(ra)
40000f6c:	00179793          	slli	a5,a5,0x1
40000f70:	f8dff06f          	jal	zero,40000efc <__divsf3+0x4c>

40000f74 <__floatsisf>:
40000f74:	08050063          	beq	a0,zero,40000ff4 <__floatsisf+0x80>
40000f78:	41f55713          	srai	a4,a0,0x1f
40000f7c:	00a747b3          	xor	a5,a4,a0
40000f80:	40e787b3          	sub	a5,a5,a4
40000f84:	ff000737          	lui	a4,0xff000
40000f88:	00e7f733          	and	a4,a5,a4
40000f8c:	04070063          	beq	a4,zero,40000fcc <__floatsisf+0x58>
40000f90:	09600713          	addi	a4,zero,150
40000f94:	ff000637          	lui	a2,0xff000
40000f98:	4017d793          	srai	a5,a5,0x1
40000f9c:	00c7f6b3          	and	a3,a5,a2
40000fa0:	00170713          	addi	a4,a4,1 # ff000001 <_stack+0xaf000005>
40000fa4:	fe069ae3          	bne	a3,zero,40000f98 <__floatsisf+0x24>
40000fa8:	008006b7          	lui	a3,0x800
40000fac:	fff68693          	addi	a3,a3,-1 # 7fffff <_entry-0x3f800001>
40000fb0:	01771713          	slli	a4,a4,0x17
40000fb4:	00d7f7b3          	and	a5,a5,a3
40000fb8:	01f55513          	srli	a0,a0,0x1f
40000fbc:	00f767b3          	or	a5,a4,a5
40000fc0:	01f51513          	slli	a0,a0,0x1f
40000fc4:	00a7e533          	or	a0,a5,a0
40000fc8:	00008067          	jalr	zero,0(ra)
40000fcc:	ff800737          	lui	a4,0xff800
40000fd0:	00e7f733          	and	a4,a5,a4
40000fd4:	02071463          	bne	a4,zero,40000ffc <__floatsisf+0x88>
40000fd8:	09600713          	addi	a4,zero,150
40000fdc:	ff800637          	lui	a2,0xff800
40000fe0:	00179793          	slli	a5,a5,0x1
40000fe4:	00c7f6b3          	and	a3,a5,a2
40000fe8:	fff70713          	addi	a4,a4,-1 # ff7fffff <_stack+0xaf800003>
40000fec:	fe068ae3          	beq	a3,zero,40000fe0 <__floatsisf+0x6c>
40000ff0:	fb9ff06f          	jal	zero,40000fa8 <__floatsisf+0x34>
40000ff4:	00000513          	addi	a0,zero,0
40000ff8:	00008067          	jalr	zero,0(ra)
40000ffc:	09600713          	addi	a4,zero,150
40001000:	fa9ff06f          	jal	zero,40000fa8 <__floatsisf+0x34>

40001004 <__extendsfdf2>:
40001004:	02050e63          	beq	a0,zero,40001040 <__extendsfdf2+0x3c>
40001008:	41755793          	srai	a5,a0,0x17
4000100c:	00951693          	slli	a3,a0,0x9
40001010:	0ff7f793          	andi	a5,a5,255
40001014:	80000737          	lui	a4,0x80000
40001018:	00a77733          	and	a4,a4,a0
4000101c:	38078793          	addi	a5,a5,896
40001020:	00c6d693          	srli	a3,a3,0xc
40001024:	00e6e6b3          	or	a3,a3,a4
40001028:	01479793          	slli	a5,a5,0x14
4000102c:	01d51713          	slli	a4,a0,0x1d
40001030:	00d7e7b3          	or	a5,a5,a3
40001034:	00070513          	addi	a0,a4,0 # 80000000 <_stack+0x30000004>
40001038:	00078593          	addi	a1,a5,0
4000103c:	00008067          	jalr	zero,0(ra)
40001040:	00000513          	addi	a0,zero,0
40001044:	00000593          	addi	a1,zero,0
40001048:	00008067          	jalr	zero,0(ra)

4000104c <frexp.part.1>:
4000104c:	7f8007b7          	lui	a5,0x7f800
40001050:	00a7f733          	and	a4,a5,a0
40001054:	02f70463          	beq	a4,a5,4000107c <frexp.part.1+0x30>
40001058:	01755713          	srli	a4,a0,0x17
4000105c:	808007b7          	lui	a5,0x80800
40001060:	0ff77713          	andi	a4,a4,255
40001064:	fff78793          	addi	a5,a5,-1 # 807fffff <_stack+0x30800003>
40001068:	00a7f7b3          	and	a5,a5,a0
4000106c:	f8270713          	addi	a4,a4,-126
40001070:	3f000537          	lui	a0,0x3f000
40001074:	00e5a023          	sw	a4,0(a1)
40001078:	00a7e533          	or	a0,a5,a0
4000107c:	00008067          	jalr	zero,0(ra)

40001080 <log>:
40001080:	fd010113          	addi	sp,sp,-48
40001084:	00000593          	addi	a1,zero,0
40001088:	02812423          	sw	s0,40(sp)
4000108c:	02112623          	sw	ra,44(sp)
40001090:	02912223          	sw	s1,36(sp)
40001094:	03212023          	sw	s2,32(sp)
40001098:	01312e23          	sw	s3,28(sp)
4000109c:	00050413          	addi	s0,a0,0 # 3f000000 <_entry-0x1000000>
400010a0:	c8dff0ef          	jal	ra,40000d2c <__lesf2>
400010a4:	1aa05263          	bge	zero,a0,40001248 <log+0x1c8>
400010a8:	00000593          	addi	a1,zero,0
400010ac:	00040513          	addi	a0,s0,0
400010b0:	cc1ff0ef          	jal	ra,40000d70 <__nesf2>
400010b4:	16051663          	bne	a0,zero,40001220 <log+0x1a0>
400010b8:	00000413          	addi	s0,zero,0
400010bc:	00000493          	addi	s1,zero,0
400010c0:	40001937          	lui	s2,0x40001
400010c4:	54492983          	lw	s3,1348(s2) # 40001544 <_etext+0x190>
400010c8:	fff40413          	addi	s0,s0,-1
400010cc:	00048593          	addi	a1,s1,0
400010d0:	00048513          	addi	a0,s1,0
400010d4:	ad1ff0ef          	jal	ra,40000ba4 <__addsf3>
400010d8:	00098593          	addi	a1,s3,0
400010dc:	00040913          	addi	s2,s0,0
400010e0:	00050493          	addi	s1,a0,0
400010e4:	fff40413          	addi	s0,s0,-1
400010e8:	c0dff0ef          	jal	ra,40000cf4 <__ltsf2>
400010ec:	fe0540e3          	blt	a0,zero,400010cc <log+0x4c>
400010f0:	400017b7          	lui	a5,0x40001
400010f4:	5687a583          	lw	a1,1384(a5) # 40001568 <_etext+0x1b4>
400010f8:	00048513          	addi	a0,s1,0
400010fc:	bf9ff0ef          	jal	ra,40000cf4 <__ltsf2>
40001100:	00055c63          	bge	a0,zero,40001118 <log+0x98>
40001104:	00048593          	addi	a1,s1,0
40001108:	00048513          	addi	a0,s1,0
4000110c:	a99ff0ef          	jal	ra,40000ba4 <__addsf3>
40001110:	00050493          	addi	s1,a0,0
40001114:	fff90913          	addi	s2,s2,-1
40001118:	40001437          	lui	s0,0x40001
4000111c:	59442583          	lw	a1,1428(s0) # 40001594 <_etext+0x1e0>
40001120:	00048513          	addi	a0,s1,0
40001124:	badff0ef          	jal	ra,40000cd0 <__subsf3>
40001128:	59442583          	lw	a1,1428(s0)
4000112c:	00050993          	addi	s3,a0,0
40001130:	00048513          	addi	a0,s1,0
40001134:	a71ff0ef          	jal	ra,40000ba4 <__addsf3>
40001138:	00050593          	addi	a1,a0,0
4000113c:	00098513          	addi	a0,s3,0
40001140:	d71ff0ef          	jal	ra,40000eb0 <__divsf3>
40001144:	00050593          	addi	a1,a0,0
40001148:	00050493          	addi	s1,a0,0
4000114c:	c31ff0ef          	jal	ra,40000d7c <__mulsf3>
40001150:	400017b7          	lui	a5,0x40001
40001154:	56c7a583          	lw	a1,1388(a5) # 4000156c <_etext+0x1b8>
40001158:	00050413          	addi	s0,a0,0
4000115c:	c21ff0ef          	jal	ra,40000d7c <__mulsf3>
40001160:	400017b7          	lui	a5,0x40001
40001164:	5707a583          	lw	a1,1392(a5) # 40001570 <_etext+0x1bc>
40001168:	b69ff0ef          	jal	ra,40000cd0 <__subsf3>
4000116c:	00040593          	addi	a1,s0,0
40001170:	c0dff0ef          	jal	ra,40000d7c <__mulsf3>
40001174:	400017b7          	lui	a5,0x40001
40001178:	5747a583          	lw	a1,1396(a5) # 40001574 <_etext+0x1c0>
4000117c:	a29ff0ef          	jal	ra,40000ba4 <__addsf3>
40001180:	00040593          	addi	a1,s0,0
40001184:	bf9ff0ef          	jal	ra,40000d7c <__mulsf3>
40001188:	400017b7          	lui	a5,0x40001
4000118c:	5787a583          	lw	a1,1400(a5) # 40001578 <_etext+0x1c4>
40001190:	b41ff0ef          	jal	ra,40000cd0 <__subsf3>
40001194:	400017b7          	lui	a5,0x40001
40001198:	57c7a583          	lw	a1,1404(a5) # 4000157c <_etext+0x1c8>
4000119c:	00050993          	addi	s3,a0,0
400011a0:	00040513          	addi	a0,s0,0
400011a4:	b2dff0ef          	jal	ra,40000cd0 <__subsf3>
400011a8:	00040593          	addi	a1,s0,0
400011ac:	bd1ff0ef          	jal	ra,40000d7c <__mulsf3>
400011b0:	400017b7          	lui	a5,0x40001
400011b4:	5807a583          	lw	a1,1408(a5) # 40001580 <_etext+0x1cc>
400011b8:	9edff0ef          	jal	ra,40000ba4 <__addsf3>
400011bc:	00040593          	addi	a1,s0,0
400011c0:	bbdff0ef          	jal	ra,40000d7c <__mulsf3>
400011c4:	400017b7          	lui	a5,0x40001
400011c8:	5847a583          	lw	a1,1412(a5) # 40001584 <_etext+0x1d0>
400011cc:	b05ff0ef          	jal	ra,40000cd0 <__subsf3>
400011d0:	00050593          	addi	a1,a0,0
400011d4:	00098513          	addi	a0,s3,0
400011d8:	cd9ff0ef          	jal	ra,40000eb0 <__divsf3>
400011dc:	00048593          	addi	a1,s1,0
400011e0:	b9dff0ef          	jal	ra,40000d7c <__mulsf3>
400011e4:	00050413          	addi	s0,a0,0
400011e8:	00090513          	addi	a0,s2,0
400011ec:	d89ff0ef          	jal	ra,40000f74 <__floatsisf>
400011f0:	400017b7          	lui	a5,0x40001
400011f4:	5887a583          	lw	a1,1416(a5) # 40001588 <_etext+0x1d4>
400011f8:	b85ff0ef          	jal	ra,40000d7c <__mulsf3>
400011fc:	00040593          	addi	a1,s0,0
40001200:	9a5ff0ef          	jal	ra,40000ba4 <__addsf3>
40001204:	02c12083          	lw	ra,44(sp)
40001208:	02812403          	lw	s0,40(sp)
4000120c:	02412483          	lw	s1,36(sp)
40001210:	02012903          	lw	s2,32(sp)
40001214:	01c12983          	lw	s3,28(sp)
40001218:	03010113          	addi	sp,sp,48
4000121c:	00008067          	jalr	zero,0(ra)
40001220:	00c10593          	addi	a1,sp,12
40001224:	00040513          	addi	a0,s0,0
40001228:	e25ff0ef          	jal	ra,4000104c <frexp.part.1>
4000122c:	40001937          	lui	s2,0x40001
40001230:	54492583          	lw	a1,1348(s2) # 40001544 <_etext+0x190>
40001234:	00050493          	addi	s1,a0,0
40001238:	abdff0ef          	jal	ra,40000cf4 <__ltsf2>
4000123c:	02055863          	bge	a0,zero,4000126c <log+0x1ec>
40001240:	00c12403          	lw	s0,12(sp)
40001244:	e81ff06f          	jal	zero,400010c4 <log+0x44>
40001248:	02c12083          	lw	ra,44(sp)
4000124c:	02812403          	lw	s0,40(sp)
40001250:	400017b7          	lui	a5,0x40001
40001254:	5647a503          	lw	a0,1380(a5) # 40001564 <_etext+0x1b0>
40001258:	02412483          	lw	s1,36(sp)
4000125c:	02012903          	lw	s2,32(sp)
40001260:	01c12983          	lw	s3,28(sp)
40001264:	03010113          	addi	sp,sp,48
40001268:	00008067          	jalr	zero,0(ra)
4000126c:	00c12903          	lw	s2,12(sp)
40001270:	e81ff06f          	jal	zero,400010f0 <log+0x70>

40001274 <teste1>:
40001274:	400017b7          	lui	a5,0x40001
40001278:	5ac7a503          	lw	a0,1452(a5) # 400015ac <_etext+0x1f8>
4000127c:	fe010113          	addi	sp,sp,-32
40001280:	00112e23          	sw	ra,28(sp)
40001284:	dfdff0ef          	jal	ra,40001080 <log>
40001288:	400017b7          	lui	a5,0x40001
4000128c:	5b07a783          	lw	a5,1456(a5) # 400015b0 <_etext+0x1fc>
40001290:	00a12423          	sw	a0,8(sp)
40001294:	00810593          	addi	a1,sp,8
40001298:	00400513          	addi	a0,zero,4
4000129c:	00f12623          	sw	a5,12(sp)
400012a0:	fe9fe0ef          	jal	ra,40000288 <printBits>
400012a4:	00c10593          	addi	a1,sp,12
400012a8:	00400513          	addi	a0,zero,4
400012ac:	fddfe0ef          	jal	ra,40000288 <printBits>
400012b0:	00812503          	lw	a0,8(sp)
400012b4:	d51ff0ef          	jal	ra,40001004 <__extendsfdf2>
400012b8:	00050613          	addi	a2,a0,0
400012bc:	40001537          	lui	a0,0x40001
400012c0:	00058693          	addi	a3,a1,0
400012c4:	5b450513          	addi	a0,a0,1460 # 400015b4 <_etext+0x200>
400012c8:	fa8ff0ef          	jal	ra,40000a70 <printf>
400012cc:	01c12083          	lw	ra,28(sp)
400012d0:	02010113          	addi	sp,sp,32
400012d4:	00008067          	jalr	zero,0(ra)

400012d8 <hfunit_run_tests>:
400012d8:	ff010113          	addi	sp,sp,-16
400012dc:	00112623          	sw	ra,12(sp)
400012e0:	f95ff0ef          	jal	ra,40001274 <teste1>
400012e4:	400017b7          	lui	a5,0x40001
400012e8:	5a07a503          	lw	a0,1440(a5) # 400015a0 <_etext+0x1ec>
400012ec:	d95ff0ef          	jal	ra,40001080 <log>
400012f0:	400017b7          	lui	a5,0x40001
400012f4:	5a47a503          	lw	a0,1444(a5) # 400015a4 <_etext+0x1f0>
400012f8:	d89ff0ef          	jal	ra,40001080 <log>
400012fc:	400017b7          	lui	a5,0x40001
40001300:	00c12083          	lw	ra,12(sp)
40001304:	5a87a503          	lw	a0,1448(a5) # 400015a8 <_etext+0x1f4>
40001308:	01010113          	addi	sp,sp,16
4000130c:	d75ff06f          	jal	zero,40001080 <log>

40001310 <main_test>:
40001310:	ff010113          	addi	sp,sp,-16
40001314:	00912223          	sw	s1,4(sp)
40001318:	400014b7          	lui	s1,0x40001
4000131c:	5c848513          	addi	a0,s1,1480 # 400015c8 <_etext+0x214>
40001320:	00112623          	sw	ra,12(sp)
40001324:	00812423          	sw	s0,8(sp)
40001328:	f48ff0ef          	jal	ra,40000a70 <printf>
4000132c:	fadff0ef          	jal	ra,400012d8 <hfunit_run_tests>
40001330:	5c848513          	addi	a0,s1,1480
40001334:	f3cff0ef          	jal	ra,40000a70 <printf>
40001338:	40001437          	lui	s0,0x40001
4000133c:	400017b7          	lui	a5,0x40001
40001340:	6a440413          	addi	s0,s0,1700 # 400016a4 <failed_tests>
40001344:	00042603          	lw	a2,0(s0)
40001348:	6a07a583          	lw	a1,1696(a5) # 400016a0 <_edata>
4000134c:	40001537          	lui	a0,0x40001
40001350:	5e050513          	addi	a0,a0,1504 # 400015e0 <_etext+0x22c>
40001354:	f1cff0ef          	jal	ra,40000a70 <printf>
40001358:	5c848513          	addi	a0,s1,1480
4000135c:	f14ff0ef          	jal	ra,40000a70 <printf>
40001360:	00042403          	lw	s0,0(s0)
40001364:	02040663          	beq	s0,zero,40001390 <main_test+0x80>
40001368:	40001537          	lui	a0,0x40001
4000136c:	60850513          	addi	a0,a0,1544 # 40001608 <_etext+0x254>
40001370:	f00ff0ef          	jal	ra,40000a70 <printf>
40001374:	00100413          	addi	s0,zero,1
40001378:	00040513          	addi	a0,s0,0
4000137c:	00c12083          	lw	ra,12(sp)
40001380:	00812403          	lw	s0,8(sp)
40001384:	00412483          	lw	s1,4(sp)
40001388:	01010113          	addi	sp,sp,16
4000138c:	00008067          	jalr	zero,0(ra)
40001390:	40001537          	lui	a0,0x40001
40001394:	61c50513          	addi	a0,a0,1564 # 4000161c <_etext+0x268>
40001398:	ed8ff0ef          	jal	ra,40000a70 <printf>
4000139c:	00040513          	addi	a0,s0,0
400013a0:	00c12083          	lw	ra,12(sp)
400013a4:	00812403          	lw	s0,8(sp)
400013a8:	00412483          	lw	s1,4(sp)
400013ac:	01010113          	addi	sp,sp,16
400013b0:	00008067          	jalr	zero,0(ra)
