
test.elf:     file format elf32-littleriscv


Disassembly of section .text:

40000000 <_entry>:
40000000:	00002697          	auipc	a3,0x2
40000004:	81068693          	addi	a3,a3,-2032 # 40001810 <_edata>
40000008:	00002617          	auipc	a2,0x2
4000000c:	81460613          	addi	a2,a2,-2028 # 4000181c <_bss_end>
40000010:	00002197          	auipc	gp,0x2
40000014:	ff818193          	addi	gp,gp,-8 # 40002008 <_gp>
40000018:	10000117          	auipc	sp,0x10000
4000001c:	fe410113          	addi	sp,sp,-28 # 4ffffffc <_stack>
40000020:	00002217          	auipc	tp,0x2
40000024:	83b20213          	addi	tp,tp,-1989 # 4000185b <_bss_end+0x3f>
40000028:	fc027213          	andi	tp,tp,-64

4000002c <BSS_CLEAR>:
4000002c:	0006a023          	sw	zero,0(a3)
40000030:	00468693          	addi	a3,a3,4
40000034:	fec6cce3          	blt	a3,a2,4000002c <BSS_CLEAR>
40000038:	00000d97          	auipc	s11,0x0
4000003c:	0c8d8d93          	addi	s11,s11,200 # 40000100 <_isr>
40000040:	f0000d37          	lui	s10,0xf0000
40000044:	01bd2023          	sw	s11,0(s10) # f0000000 <_stack+0xa0000004>
40000048:	608000ef          	jal	ra,40000650 <irq_enable>
4000004c:	404010ef          	jal	ra,40001450 <main_test>
40000050:	e0000d37          	lui	s10,0xe0000
40000054:	00ad2023          	sw	a0,0(s10) # e0000000 <_stack+0x90000004>

40000058 <L1>:
40000058:	00000063          	beq	zero,zero,40000058 <L1>
	...

40000100 <_isr>:
40000100:	00000013          	addi	zero,zero,0
40000104:	fbc10113          	addi	sp,sp,-68
40000108:	00112023          	sw	ra,0(sp)
4000010c:	00512223          	sw	t0,4(sp)
40000110:	00612423          	sw	t1,8(sp)
40000114:	00712623          	sw	t2,12(sp)
40000118:	00a12823          	sw	a0,16(sp)
4000011c:	00b12a23          	sw	a1,20(sp)
40000120:	00c12c23          	sw	a2,24(sp)
40000124:	00d12e23          	sw	a3,28(sp)
40000128:	02e12023          	sw	a4,32(sp)
4000012c:	02f12223          	sw	a5,36(sp)
40000130:	03012423          	sw	a6,40(sp)
40000134:	03112623          	sw	a7,44(sp)
40000138:	03c12823          	sw	t3,48(sp)
4000013c:	03d12a23          	sw	t4,52(sp)
40000140:	03e12c23          	sw	t5,56(sp)
40000144:	03f12e23          	sw	t6,60(sp)
40000148:	f0000d37          	lui	s10,0xf0000
4000014c:	040d0d13          	addi	s10,s10,64 # f0000040 <_stack+0xa0000044>
40000150:	000d2d03          	lw	s10,0(s10)
40000154:	ffcd0d13          	addi	s10,s10,-4
40000158:	05a12023          	sw	s10,64(sp)
4000015c:	f00005b7          	lui	a1,0xf0000
40000160:	0105a503          	lw	a0,16(a1) # f0000010 <_stack+0xa0000014>
40000164:	0205a603          	lw	a2,32(a1)
40000168:	00c57533          	and	a0,a0,a2
4000016c:	00010593          	addi	a1,sp,0
40000170:	06050263          	beq	a0,zero,400001d4 <_exception>
40000174:	510000ef          	jal	ra,40000684 <irq_handler>

40000178 <_restore>:
40000178:	01012503          	lw	a0,16(sp)
4000017c:	01412583          	lw	a1,20(sp)

40000180 <_restore_exception>:
40000180:	00012083          	lw	ra,0(sp)
40000184:	00412283          	lw	t0,4(sp)
40000188:	00812303          	lw	t1,8(sp)
4000018c:	00c12383          	lw	t2,12(sp)
40000190:	01812603          	lw	a2,24(sp)
40000194:	01c12683          	lw	a3,28(sp)
40000198:	02012703          	lw	a4,32(sp)
4000019c:	02412783          	lw	a5,36(sp)
400001a0:	02812803          	lw	a6,40(sp)
400001a4:	02c12883          	lw	a7,44(sp)
400001a8:	03012e03          	lw	t3,48(sp)
400001ac:	03412e83          	lw	t4,52(sp)
400001b0:	03812f03          	lw	t5,56(sp)
400001b4:	03c12f83          	lw	t6,60(sp)
400001b8:	04410113          	addi	sp,sp,68
400001bc:	00106d93          	ori	s11,zero,1
400001c0:	f0000d37          	lui	s10,0xf0000
400001c4:	030d0d13          	addi	s10,s10,48 # f0000030 <_stack+0xa0000034>
400001c8:	01bd2023          	sw	s11,0(s10)
400001cc:	ffc12d03          	lw	s10,-4(sp)
400001d0:	000d0067          	jalr	zero,0(s10)

400001d4 <_exception>:
400001d4:	00088513          	addi	a0,a7,0
400001d8:	01412583          	lw	a1,20(sp)
400001dc:	01812603          	lw	a2,24(sp)
400001e0:	01c12683          	lw	a3,28(sp)
400001e4:	4f0000ef          	jal	ra,400006d4 <exception_handler>
400001e8:	f99ff06f          	jal	zero,40000180 <_restore_exception>

400001ec <_interrupt_set>:
400001ec:	f00005b7          	lui	a1,0xf0000
400001f0:	03058593          	addi	a1,a1,48 # f0000030 <_stack+0xa0000034>
400001f4:	0005a603          	lw	a2,0(a1)
400001f8:	00a5a023          	sw	a0,0(a1)
400001fc:	00060513          	addi	a0,a2,0
40000200:	00008067          	jalr	zero,0(ra)

40000204 <setjmp>:
40000204:	00852023          	sw	s0,0(a0)
40000208:	00952223          	sw	s1,4(a0)
4000020c:	01252423          	sw	s2,8(a0)
40000210:	01352623          	sw	s3,12(a0)
40000214:	01452823          	sw	s4,16(a0)
40000218:	01552a23          	sw	s5,20(a0)
4000021c:	01652c23          	sw	s6,24(a0)
40000220:	01752e23          	sw	s7,28(a0)
40000224:	03852023          	sw	s8,32(a0)
40000228:	03952223          	sw	s9,36(a0)
4000022c:	02452623          	sw	tp,44(a0)
40000230:	02252823          	sw	sp,48(a0)
40000234:	02152a23          	sw	ra,52(a0)
40000238:	00006513          	ori	a0,zero,0
4000023c:	00008067          	jalr	zero,0(ra)

40000240 <longjmp>:
40000240:	00052403          	lw	s0,0(a0)
40000244:	00452483          	lw	s1,4(a0)
40000248:	00852903          	lw	s2,8(a0)
4000024c:	00c52983          	lw	s3,12(a0)
40000250:	01052a03          	lw	s4,16(a0)
40000254:	01452a83          	lw	s5,20(a0)
40000258:	01852b03          	lw	s6,24(a0)
4000025c:	01c52b83          	lw	s7,28(a0)
40000260:	02052c03          	lw	s8,32(a0)
40000264:	02452c83          	lw	s9,36(a0)
40000268:	02c52203          	lw	tp,44(a0)
4000026c:	03052103          	lw	sp,48(a0)
40000270:	03452083          	lw	ra,52(a0)
40000274:	0005e513          	ori	a0,a1,0
40000278:	00008067          	jalr	zero,0(ra)

4000027c <syscall>:
4000027c:	00050893          	addi	a7,a0,0
40000280:	00000073          	ecall
40000284:	00008067          	jalr	zero,0(ra)

40000288 <hfunit_comp_float>:
40000288:	fe010113          	addi	sp,sp,-32
4000028c:	400027b7          	lui	a5,0x40002
40000290:	00812c23          	sw	s0,24(sp)
40000294:	8187a403          	lw	s0,-2024(a5) # 40001818 <test_counter>
40000298:	00112e23          	sw	ra,28(sp)
4000029c:	00912a23          	sw	s1,20(sp)
400002a0:	00140413          	addi	s0,s0,1
400002a4:	8087ac23          	sw	s0,-2024(a5)
400002a8:	01212823          	sw	s2,16(sp)
400002ac:	01312623          	sw	s3,12(sp)
400002b0:	01412423          	sw	s4,8(sp)
400002b4:	01512223          	sw	s5,4(sp)
400002b8:	01612023          	sw	s6,0(sp)
400002bc:	00058493          	addi	s1,a1,0
400002c0:	00060b13          	addi	s6,a2,0
400002c4:	315000ef          	jal	ra,40000dd8 <__extendsfdf2>
400002c8:	00050a13          	addi	s4,a0,0
400002cc:	00048513          	addi	a0,s1,0
400002d0:	00058a93          	addi	s5,a1,0
400002d4:	400014b7          	lui	s1,0x40001
400002d8:	301000ef          	jal	ra,40000dd8 <__extendsfdf2>
400002dc:	4f84a603          	lw	a2,1272(s1) # 400014f8 <_rodata>
400002e0:	4fc4a683          	lw	a3,1276(s1)
400002e4:	00050913          	addi	s2,a0,0
400002e8:	00058993          	addi	s3,a1,0
400002ec:	000a0513          	addi	a0,s4,0
400002f0:	000a8593          	addi	a1,s5,0
400002f4:	685000ef          	jal	ra,40001178 <__subdf3>
400002f8:	00090613          	addi	a2,s2,0
400002fc:	00098693          	addi	a3,s3,0
40000300:	6b5000ef          	jal	ra,400011b4 <__ltdf2>
40000304:	02055863          	bge	a0,zero,40000334 <hfunit_comp_float+0xac>
40000308:	4f84a603          	lw	a2,1272(s1)
4000030c:	4fc4a683          	lw	a3,1276(s1)
40000310:	000a0513          	addi	a0,s4,0
40000314:	000a8593          	addi	a1,s5,0
40000318:	419000ef          	jal	ra,40000f30 <__adddf3>
4000031c:	00050613          	addi	a2,a0,0
40000320:	00058693          	addi	a3,a1,0
40000324:	00090513          	addi	a0,s2,0
40000328:	00098593          	addi	a1,s3,0
4000032c:	689000ef          	jal	ra,400011b4 <__ltdf2>
40000330:	04054a63          	blt	a0,zero,40000384 <hfunit_comp_float+0xfc>
40000334:	40002737          	lui	a4,0x40002
40000338:	81472783          	lw	a5,-2028(a4) # 40001814 <failed_tests>
4000033c:	40001537          	lui	a0,0x40001
40000340:	000b0613          	addi	a2,s6,0
40000344:	00178793          	addi	a5,a5,1
40000348:	00040593          	addi	a1,s0,0
4000034c:	50050513          	addi	a0,a0,1280 # 40001500 <_rodata+0x8>
40000350:	80f72a23          	sw	a5,-2028(a4)
40000354:	0c1000ef          	jal	ra,40000c14 <printf>
40000358:	00100513          	addi	a0,zero,1
4000035c:	01c12083          	lw	ra,28(sp)
40000360:	01812403          	lw	s0,24(sp)
40000364:	01412483          	lw	s1,20(sp)
40000368:	01012903          	lw	s2,16(sp)
4000036c:	00c12983          	lw	s3,12(sp)
40000370:	00812a03          	lw	s4,8(sp)
40000374:	00412a83          	lw	s5,4(sp)
40000378:	00012b03          	lw	s6,0(sp)
4000037c:	02010113          	addi	sp,sp,32
40000380:	00008067          	jalr	zero,0(ra)
40000384:	40001537          	lui	a0,0x40001
40000388:	000b0613          	addi	a2,s6,0
4000038c:	00040593          	addi	a1,s0,0
40000390:	51850513          	addi	a0,a0,1304 # 40001518 <_rodata+0x20>
40000394:	081000ef          	jal	ra,40000c14 <printf>
40000398:	00000513          	addi	a0,zero,0
4000039c:	fc1ff06f          	jal	zero,4000035c <hfunit_comp_float+0xd4>

400003a0 <testa_hfunit_base>:
400003a0:	ff010113          	addi	sp,sp,-16
400003a4:	400027b7          	lui	a5,0x40002
400003a8:	00112623          	sw	ra,12(sp)
400003ac:	02400713          	addi	a4,zero,36
400003b0:	00058613          	addi	a2,a1,0
400003b4:	8187a583          	lw	a1,-2024(a5) # 40001818 <test_counter>
400003b8:	02a77863          	bgeu	a4,a0,400003e8 <testa_hfunit_base+0x48>
400003bc:	400026b7          	lui	a3,0x40002
400003c0:	8146a703          	lw	a4,-2028(a3) # 40001814 <failed_tests>
400003c4:	40001537          	lui	a0,0x40001
400003c8:	50050513          	addi	a0,a0,1280 # 40001500 <_rodata+0x8>
400003cc:	00170713          	addi	a4,a4,1
400003d0:	80e6aa23          	sw	a4,-2028(a3)
400003d4:	041000ef          	jal	ra,40000c14 <printf>
400003d8:	00c12083          	lw	ra,12(sp)
400003dc:	00100513          	addi	a0,zero,1
400003e0:	01010113          	addi	sp,sp,16
400003e4:	00008067          	jalr	zero,0(ra)
400003e8:	40001537          	lui	a0,0x40001
400003ec:	51850513          	addi	a0,a0,1304 # 40001518 <_rodata+0x20>
400003f0:	025000ef          	jal	ra,40000c14 <printf>
400003f4:	00c12083          	lw	ra,12(sp)
400003f8:	00000513          	addi	a0,zero,0
400003fc:	01010113          	addi	sp,sp,16
40000400:	00008067          	jalr	zero,0(ra)

40000404 <dummy_handler>:
40000404:	40001537          	lui	a0,0x40001
40000408:	5b450513          	addi	a0,a0,1460 # 400015b4 <_rodata+0xbc>
4000040c:	0090006f          	jal	zero,40000c14 <printf>

40000410 <irq0_handler>:
40000410:	e10007b7          	lui	a5,0xe1000
40000414:	fd010113          	addi	sp,sp,-48
40000418:	4007a783          	lw	a5,1024(a5) # e1000400 <_stack+0x91000404>
4000041c:	01312e23          	sw	s3,28(sp)
40000420:	01412c23          	sw	s4,24(sp)
40000424:	400019b7          	lui	s3,0x40001
40000428:	40001a37          	lui	s4,0x40001
4000042c:	02912223          	sw	s1,36(sp)
40000430:	03212023          	sw	s2,32(sp)
40000434:	02112623          	sw	ra,44(sp)
40000438:	02812423          	sw	s0,40(sp)
4000043c:	01512a23          	sw	s5,20(sp)
40000440:	01612823          	sw	s6,16(sp)
40000444:	01712623          	sw	s7,12(sp)
40000448:	01812423          	sw	s8,8(sp)
4000044c:	01912223          	sw	s9,4(sp)
40000450:	02000913          	addi	s2,zero,32
40000454:	00100493          	addi	s1,zero,1
40000458:	7c898993          	addi	s3,s3,1992 # 400017c8 <timer_vector>
4000045c:	798a0a13          	addi	s4,s4,1944 # 40001798 <gpio_vector>
40000460:	e10007b7          	lui	a5,0xe1000
40000464:	4007a703          	lw	a4,1024(a5) # e1000400 <_stack+0x91000404>
40000468:	00149493          	slli	s1,s1,0x1
4000046c:	0c070663          	beq	a4,zero,40000538 <irq0_handler+0x128>
40000470:	fff90913          	addi	s2,s2,-1
40000474:	0c090263          	beq	s2,zero,40000538 <irq0_handler+0x128>
40000478:	4007a783          	lw	a5,1024(a5)
4000047c:	02000713          	addi	a4,zero,32
40000480:	0097f7b3          	and	a5,a5,s1
40000484:	14f76463          	bltu	a4,a5,400005cc <irq0_handler+0x1bc>
40000488:	40001737          	lui	a4,0x40001
4000048c:	00279793          	slli	a5,a5,0x2
40000490:	53070713          	addi	a4,a4,1328 # 40001530 <_rodata+0x38>
40000494:	00e787b3          	add	a5,a5,a4
40000498:	0007a783          	lw	a5,0(a5)
4000049c:	00078067          	jalr	zero,0(a5)
400004a0:	e10117b7          	lui	a5,0xe1011
400004a4:	e1010737          	lui	a4,0xe1010
400004a8:	40072403          	lw	s0,1024(a4) # e1010400 <_stack+0x91010404>
400004ac:	8007a703          	lw	a4,-2048(a5) # e1010800 <_stack+0x91010804>
400004b0:	c007a783          	lw	a5,-1024(a5)
400004b4:	00000c93          	addi	s9,zero,0
400004b8:	00e44433          	xor	s0,s0,a4
400004bc:	00f47433          	and	s0,s0,a5
400004c0:	00100b13          	addi	s6,zero,1
400004c4:	e1014c37          	lui	s8,0xe1014
400004c8:	00200a93          	addi	s5,zero,2
400004cc:	e1015bb7          	lui	s7,0xe1015
400004d0:	00147793          	andi	a5,s0,1
400004d4:	04078463          	beq	a5,zero,4000051c <irq0_handler+0x10c>
400004d8:	156c8a63          	beq	s9,s6,4000062c <irq0_handler+0x21c>
400004dc:	120c8663          	beq	s9,zero,40000608 <irq0_handler+0x1f8>
400004e0:	115c8263          	beq	s9,s5,400005e4 <irq0_handler+0x1d4>
400004e4:	00300793          	addi	a5,zero,3
400004e8:	02fc9263          	bne	s9,a5,4000050c <irq0_handler+0xfc>
400004ec:	c20ba783          	lw	a5,-992(s7) # e1014c20 <_stack+0x91014c24>
400004f0:	c30ba603          	lw	a2,-976(s7)
400004f4:	c40ba683          	lw	a3,-960(s7)
400004f8:	c30ba703          	lw	a4,-976(s7)
400004fc:	00c7c7b3          	xor	a5,a5,a2
40000500:	00d7f7b3          	and	a5,a5,a3
40000504:	00e7c7b3          	xor	a5,a5,a4
40000508:	c2fba823          	sw	a5,-976(s7)
4000050c:	002c9793          	slli	a5,s9,0x2
40000510:	00fa07b3          	add	a5,s4,a5
40000514:	0007a783          	lw	a5,0(a5)
40000518:	000780e7          	jalr	ra,0(a5)
4000051c:	00145413          	srli	s0,s0,0x1
40000520:	001c8c93          	addi	s9,s9,1
40000524:	fa0416e3          	bne	s0,zero,400004d0 <irq0_handler+0xc0>
40000528:	e10007b7          	lui	a5,0xe1000
4000052c:	4007a703          	lw	a4,1024(a5) # e1000400 <_stack+0x91000404>
40000530:	00149493          	slli	s1,s1,0x1
40000534:	f2071ee3          	bne	a4,zero,40000470 <irq0_handler+0x60>
40000538:	02c12083          	lw	ra,44(sp)
4000053c:	02812403          	lw	s0,40(sp)
40000540:	02412483          	lw	s1,36(sp)
40000544:	02012903          	lw	s2,32(sp)
40000548:	01c12983          	lw	s3,28(sp)
4000054c:	01812a03          	lw	s4,24(sp)
40000550:	01412a83          	lw	s5,20(sp)
40000554:	01012b03          	lw	s6,16(sp)
40000558:	00c12b83          	lw	s7,12(sp)
4000055c:	00812c03          	lw	s8,8(sp)
40000560:	00412c83          	lw	s9,4(sp)
40000564:	03010113          	addi	sp,sp,48
40000568:	00008067          	jalr	zero,0(ra)
4000056c:	e10217b7          	lui	a5,0xe1021
40000570:	e1020737          	lui	a4,0xe1020
40000574:	40072403          	lw	s0,1024(a4) # e1020400 <_stack+0x91020404>
40000578:	8007a703          	lw	a4,-2048(a5) # e1020800 <_stack+0x91020804>
4000057c:	c007a783          	lw	a5,-1024(a5)
40000580:	00000a93          	addi	s5,zero,0
40000584:	00e44433          	xor	s0,s0,a4
40000588:	00f47433          	and	s0,s0,a5
4000058c:	e1021bb7          	lui	s7,0xe1021
40000590:	00100b13          	addi	s6,zero,1
40000594:	00147793          	andi	a5,s0,1
40000598:	02078263          	beq	a5,zero,400005bc <irq0_handler+0x1ac>
4000059c:	800ba683          	lw	a3,-2048(s7) # e1020800 <_stack+0x91020804>
400005a0:	002a9713          	slli	a4,s5,0x2
400005a4:	00e98733          	add	a4,s3,a4
400005a8:	015b17b3          	sll	a5,s6,s5
400005ac:	00072703          	lw	a4,0(a4)
400005b0:	00d7c7b3          	xor	a5,a5,a3
400005b4:	80fba023          	sw	a5,-2048(s7)
400005b8:	000700e7          	jalr	ra,0(a4)
400005bc:	00145413          	srli	s0,s0,0x1
400005c0:	001a8a93          	addi	s5,s5,1
400005c4:	fc0418e3          	bne	s0,zero,40000594 <irq0_handler+0x184>
400005c8:	e99ff06f          	jal	zero,40000460 <irq0_handler+0x50>
400005cc:	e10007b7          	lui	a5,0xe1000
400005d0:	4007a583          	lw	a1,1024(a5) # e1000400 <_stack+0x91000404>
400005d4:	40001537          	lui	a0,0x40001
400005d8:	5e850513          	addi	a0,a0,1512 # 400015e8 <_rodata+0xf0>
400005dc:	638000ef          	jal	ra,40000c14 <printf>
400005e0:	e81ff06f          	jal	zero,40000460 <irq0_handler+0x50>
400005e4:	820ba783          	lw	a5,-2016(s7)
400005e8:	830ba603          	lw	a2,-2000(s7)
400005ec:	840ba683          	lw	a3,-1984(s7)
400005f0:	830ba703          	lw	a4,-2000(s7)
400005f4:	00c7c7b3          	xor	a5,a5,a2
400005f8:	00d7f7b3          	and	a5,a5,a3
400005fc:	00e7c7b3          	xor	a5,a5,a4
40000600:	82fba823          	sw	a5,-2000(s7)
40000604:	f09ff06f          	jal	zero,4000050c <irq0_handler+0xfc>
40000608:	020c2783          	lw	a5,32(s8) # e1014020 <_stack+0x91014024>
4000060c:	030c2603          	lw	a2,48(s8)
40000610:	040c2683          	lw	a3,64(s8)
40000614:	030c2703          	lw	a4,48(s8)
40000618:	00c7c7b3          	xor	a5,a5,a2
4000061c:	00d7f7b3          	and	a5,a5,a3
40000620:	00e7c7b3          	xor	a5,a5,a4
40000624:	02fc2823          	sw	a5,48(s8)
40000628:	ee5ff06f          	jal	zero,4000050c <irq0_handler+0xfc>
4000062c:	420c2783          	lw	a5,1056(s8)
40000630:	430c2603          	lw	a2,1072(s8)
40000634:	440c2683          	lw	a3,1088(s8)
40000638:	430c2703          	lw	a4,1072(s8)
4000063c:	00c7c7b3          	xor	a5,a5,a2
40000640:	00d7f7b3          	and	a5,a5,a3
40000644:	00e7c7b3          	xor	a5,a5,a4
40000648:	42fc2823          	sw	a5,1072(s8)
4000064c:	ec1ff06f          	jal	zero,4000050c <irq0_handler+0xfc>

40000650 <irq_enable>:
40000650:	e10347b7          	lui	a5,0xe1034
40000654:	1b200713          	addi	a4,zero,434
40000658:	00e7a823          	sw	a4,16(a5) # e1034010 <_stack+0x91034014>
4000065c:	0007a023          	sw	zero,0(a5)
40000660:	e1004637          	lui	a2,0xe1004
40000664:	00062783          	lw	a5,0(a2) # e1004000 <_stack+0x91004004>
40000668:	f0000737          	lui	a4,0xf0000
4000066c:	00100693          	addi	a3,zero,1
40000670:	1507e793          	ori	a5,a5,336
40000674:	00f62023          	sw	a5,0(a2)
40000678:	02d72023          	sw	a3,32(a4) # f0000020 <_stack+0xa0000024>
4000067c:	02d72823          	sw	a3,48(a4)
40000680:	00008067          	jalr	zero,0(ra)

40000684 <irq_handler>:
40000684:	ff010113          	addi	sp,sp,-16
40000688:	00912223          	sw	s1,4(sp)
4000068c:	400014b7          	lui	s1,0x40001
40000690:	00812423          	sw	s0,8(sp)
40000694:	00112623          	sw	ra,12(sp)
40000698:	00050413          	addi	s0,a0,0
4000069c:	7a848493          	addi	s1,s1,1960 # 400017a8 <irq_vector>
400006a0:	00147793          	andi	a5,s0,1
400006a4:	00145413          	srli	s0,s0,0x1
400006a8:	00078863          	beq	a5,zero,400006b8 <irq_handler+0x34>
400006ac:	0004a783          	lw	a5,0(s1)
400006b0:	00078463          	beq	a5,zero,400006b8 <irq_handler+0x34>
400006b4:	000780e7          	jalr	ra,0(a5)
400006b8:	00448493          	addi	s1,s1,4
400006bc:	fe0412e3          	bne	s0,zero,400006a0 <irq_handler+0x1c>
400006c0:	00c12083          	lw	ra,12(sp)
400006c4:	00812403          	lw	s0,8(sp)
400006c8:	00412483          	lw	s1,4(sp)
400006cc:	01010113          	addi	sp,sp,16
400006d0:	00008067          	jalr	zero,0(ra)

400006d4 <exception_handler>:
400006d4:	00068713          	addi	a4,a3,0
400006d8:	00060693          	addi	a3,a2,0
400006dc:	00058613          	addi	a2,a1,0
400006e0:	00050593          	addi	a1,a0,0
400006e4:	40001537          	lui	a0,0x40001
400006e8:	ff010113          	addi	sp,sp,-16
400006ec:	5bc50513          	addi	a0,a0,1468 # 400015bc <_rodata+0xc4>
400006f0:	00112623          	sw	ra,12(sp)
400006f4:	520000ef          	jal	ra,40000c14 <printf>
400006f8:	00c12083          	lw	ra,12(sp)
400006fc:	fff00513          	addi	a0,zero,-1
40000700:	01010113          	addi	sp,sp,16
40000704:	00008067          	jalr	zero,0(ra)

40000708 <printchar.part.0>:
40000708:	e1030737          	lui	a4,0xe1030
4000070c:	40072783          	lw	a5,1024(a4) # e1030400 <_stack+0x91030404>
40000710:	0027f793          	andi	a5,a5,2
40000714:	fe079ce3          	bne	a5,zero,4000070c <printchar.part.0+0x4>
40000718:	e10347b7          	lui	a5,0xe1034
4000071c:	00a7a023          	sw	a0,0(a5) # e1034000 <_stack+0x91034004>
40000720:	00008067          	jalr	zero,0(ra)

40000724 <vsprintf>:
40000724:	fb010113          	addi	sp,sp,-80
40000728:	04812423          	sw	s0,72(sp)
4000072c:	04112623          	sw	ra,76(sp)
40000730:	04912223          	sw	s1,68(sp)
40000734:	05212023          	sw	s2,64(sp)
40000738:	03312e23          	sw	s3,60(sp)
4000073c:	03412c23          	sw	s4,56(sp)
40000740:	03512a23          	sw	s5,52(sp)
40000744:	03612823          	sw	s6,48(sp)
40000748:	03712623          	sw	s7,44(sp)
4000074c:	03812423          	sw	s8,40(sp)
40000750:	03912223          	sw	s9,36(sp)
40000754:	0005c783          	lbu	a5,0(a1)
40000758:	00c12223          	sw	a2,4(sp)
4000075c:	00050413          	addi	s0,a0,0
40000760:	1c078c63          	beq	a5,zero,40000938 <vsprintf+0x214>
40000764:	400019b7          	lui	s3,0x40001
40000768:	61098713          	addi	a4,s3,1552 # 40001610 <_rodata+0x118>
4000076c:	40001937          	lui	s2,0x40001
40000770:	00e12623          	sw	a4,12(sp)
40000774:	69c90713          	addi	a4,s2,1692 # 4000169c <_rodata+0x1a4>
40000778:	00058a13          	addi	s4,a1,0
4000077c:	00e12423          	sw	a4,8(sp)
40000780:	0300006f          	jal	zero,400007b0 <vsprintf+0x8c>
40000784:	2e040a63          	beq	s0,zero,40000a78 <vsprintf+0x354>
40000788:	00042683          	lw	a3,0(s0)
4000078c:	000b8713          	addi	a4,s7,0
40000790:	000a0b93          	addi	s7,s4,0
40000794:	00f68023          	sb	a5,0(a3)
40000798:	00042783          	lw	a5,0(s0)
4000079c:	00070a13          	addi	s4,a4,0
400007a0:	00178793          	addi	a5,a5,1
400007a4:	00f42023          	sw	a5,0(s0)
400007a8:	001bc783          	lbu	a5,1(s7)
400007ac:	18078663          	beq	a5,zero,40000938 <vsprintf+0x214>
400007b0:	02500713          	addi	a4,zero,37
400007b4:	001a0b93          	addi	s7,s4,1
400007b8:	fce796e3          	bne	a5,a4,40000784 <vsprintf+0x60>
400007bc:	001a4783          	lbu	a5,1(s4)
400007c0:	03000713          	addi	a4,zero,48
400007c4:	02000993          	addi	s3,zero,32
400007c8:	00e79863          	bne	a5,a4,400007d8 <vsprintf+0xb4>
400007cc:	002a4783          	lbu	a5,2(s4)
400007d0:	002a0b93          	addi	s7,s4,2
400007d4:	03000993          	addi	s3,zero,48
400007d8:	fd078713          	addi	a4,a5,-48
400007dc:	0ff77713          	andi	a4,a4,255
400007e0:	00900613          	addi	a2,zero,9
400007e4:	fff00b13          	addi	s6,zero,-1
400007e8:	2ae67463          	bgeu	a2,a4,40000a90 <vsprintf+0x36c>
400007ec:	06c00713          	addi	a4,zero,108
400007f0:	001b8a13          	addi	s4,s7,1
400007f4:	00e79a63          	bne	a5,a4,40000808 <vsprintf+0xe4>
400007f8:	002b8713          	addi	a4,s7,2
400007fc:	001bc783          	lbu	a5,1(s7)
40000800:	000a0b93          	addi	s7,s4,0
40000804:	00070a13          	addi	s4,a4,0
40000808:	fa878793          	addi	a5,a5,-88
4000080c:	0ff7f793          	andi	a5,a5,255
40000810:	02000713          	addi	a4,zero,32
40000814:	f8f76ae3          	bltu	a4,a5,400007a8 <vsprintf+0x84>
40000818:	00c12703          	lw	a4,12(sp)
4000081c:	00279793          	slli	a5,a5,0x2
40000820:	00e787b3          	add	a5,a5,a4
40000824:	0007a783          	lw	a5,0(a5)
40000828:	00078067          	jalr	zero,0(a5)
4000082c:	00412783          	lw	a5,4(sp)
40000830:	00a00c93          	addi	s9,zero,10
40000834:	0007a903          	lw	s2,0(a5)
40000838:	00478793          	addi	a5,a5,4
4000083c:	00f12223          	sw	a5,4(sp)
40000840:	18091663          	bne	s2,zero,400009cc <vsprintf+0x2a8>
40000844:	03000793          	addi	a5,zero,48
40000848:	00100a93          	addi	s5,zero,1
4000084c:	00f10823          	sb	a5,16(sp)
40000850:	03000493          	addi	s1,zero,48
40000854:	00000c13          	addi	s8,zero,0
40000858:	415b0ab3          	sub	s5,s6,s5
4000085c:	03505263          	bge	zero,s5,40000880 <vsprintf+0x15c>
40000860:	20040463          	beq	s0,zero,40000a68 <vsprintf+0x344>
40000864:	00042783          	lw	a5,0(s0)
40000868:	fffa8a93          	addi	s5,s5,-1
4000086c:	01378023          	sb	s3,0(a5)
40000870:	00042783          	lw	a5,0(s0)
40000874:	00178793          	addi	a5,a5,1
40000878:	00f42023          	sw	a5,0(s0)
4000087c:	ff5042e3          	blt	zero,s5,40000860 <vsprintf+0x13c>
40000880:	02040a63          	beq	s0,zero,400008b4 <vsprintf+0x190>
40000884:	00042783          	lw	a5,0(s0)
40000888:	00978023          	sb	s1,0(a5)
4000088c:	00042783          	lw	a5,0(s0)
40000890:	00178793          	addi	a5,a5,1
40000894:	00f42023          	sw	a5,0(s0)
40000898:	fffc0793          	addi	a5,s8,-1
4000089c:	f18056e3          	bge	zero,s8,400007a8 <vsprintf+0x84>
400008a0:	01010713          	addi	a4,sp,16
400008a4:	00f70733          	add	a4,a4,a5
400008a8:	00074483          	lbu	s1,0(a4)
400008ac:	00078c13          	addi	s8,a5,0
400008b0:	fc041ae3          	bne	s0,zero,40000884 <vsprintf+0x160>
400008b4:	fe0482e3          	beq	s1,zero,40000898 <vsprintf+0x174>
400008b8:	00048513          	addi	a0,s1,0
400008bc:	e4dff0ef          	jal	ra,40000708 <printchar.part.0>
400008c0:	fd9ff06f          	jal	zero,40000898 <vsprintf+0x174>
400008c4:	00412783          	lw	a5,4(sp)
400008c8:	0007aa83          	lw	s5,0(a5)
400008cc:	00478493          	addi	s1,a5,4
400008d0:	1e0a8863          	beq	s5,zero,40000ac0 <vsprintf+0x39c>
400008d4:	000ac503          	lbu	a0,0(s5)
400008d8:	02050863          	beq	a0,zero,40000908 <vsprintf+0x1e4>
400008dc:	040b0863          	beq	s6,zero,4000092c <vsprintf+0x208>
400008e0:	20040263          	beq	s0,zero,40000ae4 <vsprintf+0x3c0>
400008e4:	00042783          	lw	a5,0(s0)
400008e8:	00a78023          	sb	a0,0(a5)
400008ec:	00042783          	lw	a5,0(s0)
400008f0:	00178793          	addi	a5,a5,1
400008f4:	00f42023          	sw	a5,0(s0)
400008f8:	001a8a93          	addi	s5,s5,1
400008fc:	000ac503          	lbu	a0,0(s5)
40000900:	fffb0b13          	addi	s6,s6,-1
40000904:	fc051ce3          	bne	a0,zero,400008dc <vsprintf+0x1b8>
40000908:	03605263          	bge	zero,s6,4000092c <vsprintf+0x208>
4000090c:	1e040063          	beq	s0,zero,40000aec <vsprintf+0x3c8>
40000910:	00042783          	lw	a5,0(s0)
40000914:	fffb0b13          	addi	s6,s6,-1
40000918:	01378023          	sb	s3,0(a5)
4000091c:	00042783          	lw	a5,0(s0)
40000920:	00178793          	addi	a5,a5,1
40000924:	00f42023          	sw	a5,0(s0)
40000928:	ff6042e3          	blt	zero,s6,4000090c <vsprintf+0x1e8>
4000092c:	001bc783          	lbu	a5,1(s7)
40000930:	00912223          	sw	s1,4(sp)
40000934:	e6079ee3          	bne	a5,zero,400007b0 <vsprintf+0x8c>
40000938:	00040c63          	beq	s0,zero,40000950 <vsprintf+0x22c>
4000093c:	00042783          	lw	a5,0(s0)
40000940:	00078023          	sb	zero,0(a5)
40000944:	00042783          	lw	a5,0(s0)
40000948:	00178793          	addi	a5,a5,1
4000094c:	00f42023          	sw	a5,0(s0)
40000950:	04c12083          	lw	ra,76(sp)
40000954:	04812403          	lw	s0,72(sp)
40000958:	04412483          	lw	s1,68(sp)
4000095c:	04012903          	lw	s2,64(sp)
40000960:	03c12983          	lw	s3,60(sp)
40000964:	03812a03          	lw	s4,56(sp)
40000968:	03412a83          	lw	s5,52(sp)
4000096c:	03012b03          	lw	s6,48(sp)
40000970:	02c12b83          	lw	s7,44(sp)
40000974:	02812c03          	lw	s8,40(sp)
40000978:	02412c83          	lw	s9,36(sp)
4000097c:	00000513          	addi	a0,zero,0
40000980:	05010113          	addi	sp,sp,80
40000984:	00008067          	jalr	zero,0(ra)
40000988:	00412783          	lw	a5,4(sp)
4000098c:	00a00c93          	addi	s9,zero,10
40000990:	0007a903          	lw	s2,0(a5)
40000994:	00478a93          	addi	s5,a5,4
40000998:	01512223          	sw	s5,4(sp)
4000099c:	ea0952e3          	bge	s2,zero,40000840 <vsprintf+0x11c>
400009a0:	41200933          	sub	s2,zero,s2
400009a4:	14040c63          	beq	s0,zero,40000afc <vsprintf+0x3d8>
400009a8:	00042703          	lw	a4,0(s0)
400009ac:	02d00613          	addi	a2,zero,45
400009b0:	00c70023          	sb	a2,0(a4)
400009b4:	00042703          	lw	a4,0(s0)
400009b8:	00170713          	addi	a4,a4,1
400009bc:	00e42023          	sw	a4,0(s0)
400009c0:	fffb0b13          	addi	s6,s6,-1
400009c4:	01512223          	sw	s5,4(sp)
400009c8:	00a00c93          	addi	s9,zero,10
400009cc:	00000c13          	addi	s8,zero,0
400009d0:	0080006f          	jal	zero,400009d8 <vsprintf+0x2b4>
400009d4:	000a8c13          	addi	s8,s5,0
400009d8:	000c8593          	addi	a1,s9,0
400009dc:	00090513          	addi	a0,s2,0
400009e0:	314000ef          	jal	ra,40000cf4 <__umodsi3>
400009e4:	00812783          	lw	a5,8(sp)
400009e8:	001c0a93          	addi	s5,s8,1
400009ec:	000c8593          	addi	a1,s9,0
400009f0:	00a78533          	add	a0,a5,a0
400009f4:	00054483          	lbu	s1,0(a0)
400009f8:	01010793          	addi	a5,sp,16
400009fc:	015787b3          	add	a5,a5,s5
40000a00:	00090513          	addi	a0,s2,0
40000a04:	fe978fa3          	sb	s1,-1(a5)
40000a08:	01212023          	sw	s2,0(sp)
40000a0c:	280000ef          	jal	ra,40000c8c <__udivsi3>
40000a10:	00012603          	lw	a2,0(sp)
40000a14:	00050913          	addi	s2,a0,0
40000a18:	fb967ee3          	bgeu	a2,s9,400009d4 <vsprintf+0x2b0>
40000a1c:	415b0ab3          	sub	s5,s6,s5
40000a20:	e3dff06f          	jal	zero,4000085c <vsprintf+0x138>
40000a24:	00412783          	lw	a5,4(sp)
40000a28:	00478713          	addi	a4,a5,4
40000a2c:	0007a783          	lw	a5,0(a5)
40000a30:	0a040063          	beq	s0,zero,40000ad0 <vsprintf+0x3ac>
40000a34:	00042683          	lw	a3,0(s0)
40000a38:	00e12223          	sw	a4,4(sp)
40000a3c:	00f68023          	sb	a5,0(a3)
40000a40:	00042783          	lw	a5,0(s0)
40000a44:	00178793          	addi	a5,a5,1
40000a48:	00f42023          	sw	a5,0(s0)
40000a4c:	d5dff06f          	jal	zero,400007a8 <vsprintf+0x84>
40000a50:	00412783          	lw	a5,4(sp)
40000a54:	01000c93          	addi	s9,zero,16
40000a58:	0007a903          	lw	s2,0(a5)
40000a5c:	00478793          	addi	a5,a5,4
40000a60:	00f12223          	sw	a5,4(sp)
40000a64:	dddff06f          	jal	zero,40000840 <vsprintf+0x11c>
40000a68:	00098513          	addi	a0,s3,0
40000a6c:	c9dff0ef          	jal	ra,40000708 <printchar.part.0>
40000a70:	fffa8a93          	addi	s5,s5,-1
40000a74:	e09ff06f          	jal	zero,4000087c <vsprintf+0x158>
40000a78:	00078513          	addi	a0,a5,0
40000a7c:	c8dff0ef          	jal	ra,40000708 <printchar.part.0>
40000a80:	000b8793          	addi	a5,s7,0
40000a84:	000a0b93          	addi	s7,s4,0
40000a88:	00078a13          	addi	s4,a5,0
40000a8c:	d1dff06f          	jal	zero,400007a8 <vsprintf+0x84>
40000a90:	00000b13          	addi	s6,zero,0
40000a94:	002b1713          	slli	a4,s6,0x2
40000a98:	01670733          	add	a4,a4,s6
40000a9c:	001b8b93          	addi	s7,s7,1
40000aa0:	00171713          	slli	a4,a4,0x1
40000aa4:	00f70733          	add	a4,a4,a5
40000aa8:	000bc783          	lbu	a5,0(s7)
40000aac:	fd070b13          	addi	s6,a4,-48
40000ab0:	fd078713          	addi	a4,a5,-48
40000ab4:	0ff77713          	andi	a4,a4,255
40000ab8:	fce67ee3          	bgeu	a2,a4,40000a94 <vsprintf+0x370>
40000abc:	d31ff06f          	jal	zero,400007ec <vsprintf+0xc8>
40000ac0:	40001ab7          	lui	s5,0x40001
40000ac4:	694a8a93          	addi	s5,s5,1684 # 40001694 <_rodata+0x19c>
40000ac8:	03c00513          	addi	a0,zero,60
40000acc:	e11ff06f          	jal	zero,400008dc <vsprintf+0x1b8>
40000ad0:	0ff7f513          	andi	a0,a5,255
40000ad4:	00e12223          	sw	a4,4(sp)
40000ad8:	cc0508e3          	beq	a0,zero,400007a8 <vsprintf+0x84>
40000adc:	c2dff0ef          	jal	ra,40000708 <printchar.part.0>
40000ae0:	cc9ff06f          	jal	zero,400007a8 <vsprintf+0x84>
40000ae4:	c25ff0ef          	jal	ra,40000708 <printchar.part.0>
40000ae8:	e11ff06f          	jal	zero,400008f8 <vsprintf+0x1d4>
40000aec:	00098513          	addi	a0,s3,0
40000af0:	c19ff0ef          	jal	ra,40000708 <printchar.part.0>
40000af4:	fffb0b13          	addi	s6,s6,-1
40000af8:	e31ff06f          	jal	zero,40000928 <vsprintf+0x204>
40000afc:	02d00513          	addi	a0,zero,45
40000b00:	c09ff0ef          	jal	ra,40000708 <printchar.part.0>
40000b04:	ebdff06f          	jal	zero,400009c0 <vsprintf+0x29c>

40000b08 <strtol>:
40000b08:	fd010113          	addi	sp,sp,-48
40000b0c:	01312e23          	sw	s3,28(sp)
40000b10:	01612823          	sw	s6,16(sp)
40000b14:	01712623          	sw	s7,12(sp)
40000b18:	01812423          	sw	s8,8(sp)
40000b1c:	02112623          	sw	ra,44(sp)
40000b20:	02812423          	sw	s0,40(sp)
40000b24:	02912223          	sw	s1,36(sp)
40000b28:	03212023          	sw	s2,32(sp)
40000b2c:	01412c23          	sw	s4,24(sp)
40000b30:	01512a23          	sw	s5,20(sp)
40000b34:	00054783          	lbu	a5,0(a0)
40000b38:	02d00713          	addi	a4,zero,45
40000b3c:	00050c13          	addi	s8,a0,0
40000b40:	00058b93          	addi	s7,a1,0
40000b44:	00060993          	addi	s3,a2,0
40000b48:	00000b13          	addi	s6,zero,0
40000b4c:	00e79863          	bne	a5,a4,40000b5c <strtol+0x54>
40000b50:	00154783          	lbu	a5,1(a0)
40000b54:	00100b13          	addi	s6,zero,1
40000b58:	00150c13          	addi	s8,a0,1
40000b5c:	03000713          	addi	a4,zero,48
40000b60:	08e78c63          	beq	a5,a4,40000bf8 <strtol+0xf0>
40000b64:	009c0a13          	addi	s4,s8,9
40000b68:	00000593          	addi	a1,zero,0
40000b6c:	00900913          	addi	s2,zero,9
40000b70:	01900a93          	addi	s5,zero,25
40000b74:	00c0006f          	jal	zero,40000b80 <strtol+0x78>
40000b78:	00044783          	lbu	a5,0(s0)
40000b7c:	00040c13          	addi	s8,s0,0
40000b80:	fd078493          	addi	s1,a5,-48
40000b84:	fbf78713          	addi	a4,a5,-65
40000b88:	001c0413          	addi	s0,s8,1
40000b8c:	00997c63          	bgeu	s2,s1,40000ba4 <strtol+0x9c>
40000b90:	f9f78693          	addi	a3,a5,-97
40000b94:	fc978493          	addi	s1,a5,-55
40000b98:	00eaf663          	bgeu	s5,a4,40000ba4 <strtol+0x9c>
40000b9c:	00daec63          	bltu	s5,a3,40000bb4 <strtol+0xac>
40000ba0:	fa978493          	addi	s1,a5,-87
40000ba4:	00098513          	addi	a0,s3,0
40000ba8:	0b4000ef          	jal	ra,40000c5c <__mulsi3>
40000bac:	009505b3          	add	a1,a0,s1
40000bb0:	fd4414e3          	bne	s0,s4,40000b78 <strtol+0x70>
40000bb4:	000b8463          	beq	s7,zero,40000bbc <strtol+0xb4>
40000bb8:	018ba023          	sw	s8,0(s7)
40000bbc:	00058513          	addi	a0,a1,0
40000bc0:	000b0463          	beq	s6,zero,40000bc8 <strtol+0xc0>
40000bc4:	40b00533          	sub	a0,zero,a1
40000bc8:	02c12083          	lw	ra,44(sp)
40000bcc:	02812403          	lw	s0,40(sp)
40000bd0:	02412483          	lw	s1,36(sp)
40000bd4:	02012903          	lw	s2,32(sp)
40000bd8:	01c12983          	lw	s3,28(sp)
40000bdc:	01812a03          	lw	s4,24(sp)
40000be0:	01412a83          	lw	s5,20(sp)
40000be4:	01012b03          	lw	s6,16(sp)
40000be8:	00c12b83          	lw	s7,12(sp)
40000bec:	00812c03          	lw	s8,8(sp)
40000bf0:	03010113          	addi	sp,sp,48
40000bf4:	00008067          	jalr	zero,0(ra)
40000bf8:	001c4683          	lbu	a3,1(s8)
40000bfc:	07800713          	addi	a4,zero,120
40000c00:	f6e692e3          	bne	a3,a4,40000b64 <strtol+0x5c>
40000c04:	002c4783          	lbu	a5,2(s8)
40000c08:	01000993          	addi	s3,zero,16
40000c0c:	002c0c13          	addi	s8,s8,2
40000c10:	f55ff06f          	jal	zero,40000b64 <strtol+0x5c>

40000c14 <printf>:
40000c14:	fc010113          	addi	sp,sp,-64
40000c18:	02410313          	addi	t1,sp,36
40000c1c:	02b12223          	sw	a1,36(sp)
40000c20:	02c12423          	sw	a2,40(sp)
40000c24:	00050593          	addi	a1,a0,0
40000c28:	00030613          	addi	a2,t1,0
40000c2c:	00000513          	addi	a0,zero,0
40000c30:	00112e23          	sw	ra,28(sp)
40000c34:	02d12623          	sw	a3,44(sp)
40000c38:	02e12823          	sw	a4,48(sp)
40000c3c:	02f12a23          	sw	a5,52(sp)
40000c40:	03012c23          	sw	a6,56(sp)
40000c44:	03112e23          	sw	a7,60(sp)
40000c48:	00612623          	sw	t1,12(sp)
40000c4c:	ad9ff0ef          	jal	ra,40000724 <vsprintf>
40000c50:	01c12083          	lw	ra,28(sp)
40000c54:	04010113          	addi	sp,sp,64
40000c58:	00008067          	jalr	zero,0(ra)

40000c5c <__mulsi3>:
40000c5c:	02058463          	beq	a1,zero,40000c84 <__mulsi3+0x28>
40000c60:	00000713          	addi	a4,zero,0
40000c64:	0015f793          	andi	a5,a1,1
40000c68:	0015d593          	srli	a1,a1,0x1
40000c6c:	00078463          	beq	a5,zero,40000c74 <__mulsi3+0x18>
40000c70:	00a70733          	add	a4,a4,a0
40000c74:	00151513          	slli	a0,a0,0x1
40000c78:	fe0596e3          	bne	a1,zero,40000c64 <__mulsi3+0x8>
40000c7c:	00070513          	addi	a0,a4,0
40000c80:	00008067          	jalr	zero,0(ra)
40000c84:	00000513          	addi	a0,zero,0
40000c88:	00008067          	jalr	zero,0(ra)

40000c8c <__udivsi3>:
40000c8c:	00050693          	addi	a3,a0,0
40000c90:	04a5fc63          	bgeu	a1,a0,40000ce8 <__udivsi3+0x5c>
40000c94:	0405ca63          	blt	a1,zero,40000ce8 <__udivsi3+0x5c>
40000c98:	02000713          	addi	a4,zero,32
40000c9c:	00100793          	addi	a5,zero,1
40000ca0:	00c0006f          	jal	zero,40000cac <__udivsi3+0x20>
40000ca4:	02070e63          	beq	a4,zero,40000ce0 <__udivsi3+0x54>
40000ca8:	0005cc63          	blt	a1,zero,40000cc0 <__udivsi3+0x34>
40000cac:	00159593          	slli	a1,a1,0x1
40000cb0:	fff70713          	addi	a4,a4,-1
40000cb4:	00179793          	slli	a5,a5,0x1
40000cb8:	fed5e6e3          	bltu	a1,a3,40000ca4 <__udivsi3+0x18>
40000cbc:	02078263          	beq	a5,zero,40000ce0 <__udivsi3+0x54>
40000cc0:	00000513          	addi	a0,zero,0
40000cc4:	00b6e663          	bltu	a3,a1,40000cd0 <__udivsi3+0x44>
40000cc8:	40b686b3          	sub	a3,a3,a1
40000ccc:	00f56533          	or	a0,a0,a5
40000cd0:	0017d793          	srli	a5,a5,0x1
40000cd4:	0015d593          	srli	a1,a1,0x1
40000cd8:	fe0796e3          	bne	a5,zero,40000cc4 <__udivsi3+0x38>
40000cdc:	00008067          	jalr	zero,0(ra)
40000ce0:	00000513          	addi	a0,zero,0
40000ce4:	00008067          	jalr	zero,0(ra)
40000ce8:	00100793          	addi	a5,zero,1
40000cec:	00000513          	addi	a0,zero,0
40000cf0:	fd5ff06f          	jal	zero,40000cc4 <__udivsi3+0x38>

40000cf4 <__umodsi3>:
40000cf4:	04a5f663          	bgeu	a1,a0,40000d40 <__umodsi3+0x4c>
40000cf8:	0405c463          	blt	a1,zero,40000d40 <__umodsi3+0x4c>
40000cfc:	02000713          	addi	a4,zero,32
40000d00:	00100793          	addi	a5,zero,1
40000d04:	00c0006f          	jal	zero,40000d10 <__umodsi3+0x1c>
40000d08:	02070863          	beq	a4,zero,40000d38 <__umodsi3+0x44>
40000d0c:	0005cc63          	blt	a1,zero,40000d24 <__umodsi3+0x30>
40000d10:	00159593          	slli	a1,a1,0x1
40000d14:	fff70713          	addi	a4,a4,-1
40000d18:	00179793          	slli	a5,a5,0x1
40000d1c:	fea5e6e3          	bltu	a1,a0,40000d08 <__umodsi3+0x14>
40000d20:	00078e63          	beq	a5,zero,40000d3c <__umodsi3+0x48>
40000d24:	0017d793          	srli	a5,a5,0x1
40000d28:	00b56463          	bltu	a0,a1,40000d30 <__umodsi3+0x3c>
40000d2c:	40b50533          	sub	a0,a0,a1
40000d30:	0015d593          	srli	a1,a1,0x1
40000d34:	fe0798e3          	bne	a5,zero,40000d24 <__umodsi3+0x30>
40000d38:	00008067          	jalr	zero,0(ra)
40000d3c:	00008067          	jalr	zero,0(ra)
40000d40:	00100793          	addi	a5,zero,1
40000d44:	fe1ff06f          	jal	zero,40000d24 <__umodsi3+0x30>

40000d48 <__floatsisf>:
40000d48:	08050063          	beq	a0,zero,40000dc8 <__floatsisf+0x80>
40000d4c:	41f55713          	srai	a4,a0,0x1f
40000d50:	00a747b3          	xor	a5,a4,a0
40000d54:	40e787b3          	sub	a5,a5,a4
40000d58:	ff000737          	lui	a4,0xff000
40000d5c:	00e7f733          	and	a4,a5,a4
40000d60:	04070063          	beq	a4,zero,40000da0 <__floatsisf+0x58>
40000d64:	09600713          	addi	a4,zero,150
40000d68:	ff000637          	lui	a2,0xff000
40000d6c:	4017d793          	srai	a5,a5,0x1
40000d70:	00c7f6b3          	and	a3,a5,a2
40000d74:	00170713          	addi	a4,a4,1 # ff000001 <_stack+0xaf000005>
40000d78:	fe069ae3          	bne	a3,zero,40000d6c <__floatsisf+0x24>
40000d7c:	008006b7          	lui	a3,0x800
40000d80:	fff68693          	addi	a3,a3,-1 # 7fffff <_entry-0x3f800001>
40000d84:	01771713          	slli	a4,a4,0x17
40000d88:	00d7f7b3          	and	a5,a5,a3
40000d8c:	01f55513          	srli	a0,a0,0x1f
40000d90:	00f767b3          	or	a5,a4,a5
40000d94:	01f51513          	slli	a0,a0,0x1f
40000d98:	00a7e533          	or	a0,a5,a0
40000d9c:	00008067          	jalr	zero,0(ra)
40000da0:	ff800737          	lui	a4,0xff800
40000da4:	00e7f733          	and	a4,a5,a4
40000da8:	02071463          	bne	a4,zero,40000dd0 <__floatsisf+0x88>
40000dac:	09600713          	addi	a4,zero,150
40000db0:	ff800637          	lui	a2,0xff800
40000db4:	00179793          	slli	a5,a5,0x1
40000db8:	00c7f6b3          	and	a3,a5,a2
40000dbc:	fff70713          	addi	a4,a4,-1 # ff7fffff <_stack+0xaf800003>
40000dc0:	fe068ae3          	beq	a3,zero,40000db4 <__floatsisf+0x6c>
40000dc4:	fb9ff06f          	jal	zero,40000d7c <__floatsisf+0x34>
40000dc8:	00000513          	addi	a0,zero,0
40000dcc:	00008067          	jalr	zero,0(ra)
40000dd0:	09600713          	addi	a4,zero,150
40000dd4:	fa9ff06f          	jal	zero,40000d7c <__floatsisf+0x34>

40000dd8 <__extendsfdf2>:
40000dd8:	02050e63          	beq	a0,zero,40000e14 <__extendsfdf2+0x3c>
40000ddc:	41755793          	srai	a5,a0,0x17
40000de0:	00951693          	slli	a3,a0,0x9
40000de4:	0ff7f793          	andi	a5,a5,255
40000de8:	80000737          	lui	a4,0x80000
40000dec:	00a77733          	and	a4,a4,a0
40000df0:	38078793          	addi	a5,a5,896
40000df4:	00c6d693          	srli	a3,a3,0xc
40000df8:	00e6e6b3          	or	a3,a3,a4
40000dfc:	01479793          	slli	a5,a5,0x14
40000e00:	01d51713          	slli	a4,a0,0x1d
40000e04:	00d7e7b3          	or	a5,a5,a3
40000e08:	00070513          	addi	a0,a4,0 # 80000000 <_stack+0x30000004>
40000e0c:	00078593          	addi	a1,a5,0
40000e10:	00008067          	jalr	zero,0(ra)
40000e14:	00000513          	addi	a0,zero,0
40000e18:	00000593          	addi	a1,zero,0
40000e1c:	00008067          	jalr	zero,0(ra)

40000e20 <__truncdfsf2>:
40000e20:	04059663          	bne	a1,zero,40000e6c <__truncdfsf2+0x4c>
40000e24:	00000793          	addi	a5,zero,0
40000e28:	02050e63          	beq	a0,zero,40000e64 <__truncdfsf2+0x44>
40000e2c:	010007b7          	lui	a5,0x1000
40000e30:	01c55513          	srli	a0,a0,0x1c
40000e34:	00f56533          	or	a0,a0,a5
40000e38:	c8000713          	addi	a4,zero,-896
40000e3c:	01771793          	slli	a5,a4,0x17
40000e40:	00150513          	addi	a0,a0,1
40000e44:	ff800737          	lui	a4,0xff800
40000e48:	40155513          	srai	a0,a0,0x1
40000e4c:	fff70713          	addi	a4,a4,-1 # ff7fffff <_stack+0xaf800003>
40000e50:	00e57533          	and	a0,a0,a4
40000e54:	00a7e7b3          	or	a5,a5,a0
40000e58:	80000537          	lui	a0,0x80000
40000e5c:	00b575b3          	and	a1,a0,a1
40000e60:	00b7e7b3          	or	a5,a5,a1
40000e64:	00078513          	addi	a0,a5,0 # 1000000 <_entry-0x3f000000>
40000e68:	00008067          	jalr	zero,0(ra)
40000e6c:	400007b7          	lui	a5,0x40000
40000e70:	c0078793          	addi	a5,a5,-1024 # 3ffffc00 <_entry-0x400>
40000e74:	00a59693          	slli	a3,a1,0xa
40000e78:	00f6f6b3          	and	a3,a3,a5
40000e7c:	01655513          	srli	a0,a0,0x16
40000e80:	00a6e6b3          	or	a3,a3,a0
40000e84:	0066d693          	srli	a3,a3,0x6
40000e88:	01000537          	lui	a0,0x1000
40000e8c:	00a6e6b3          	or	a3,a3,a0
40000e90:	00168693          	addi	a3,a3,1
40000e94:	4016d513          	srai	a0,a3,0x1
40000e98:	ff0007b7          	lui	a5,0xff000
40000e9c:	4145d713          	srai	a4,a1,0x14
40000ea0:	00f577b3          	and	a5,a0,a5
40000ea4:	7ff77713          	andi	a4,a4,2047
40000ea8:	02078a63          	beq	a5,zero,40000edc <__truncdfsf2+0xbc>
40000eac:	4026d513          	srai	a0,a3,0x2
40000eb0:	c8170713          	addi	a4,a4,-895
40000eb4:	01771793          	slli	a5,a4,0x17
40000eb8:	ff800737          	lui	a4,0xff800
40000ebc:	fff70713          	addi	a4,a4,-1 # ff7fffff <_stack+0xaf800003>
40000ec0:	00e57533          	and	a0,a0,a4
40000ec4:	00a7e7b3          	or	a5,a5,a0
40000ec8:	80000537          	lui	a0,0x80000
40000ecc:	00b575b3          	and	a1,a0,a1
40000ed0:	00b7e7b3          	or	a5,a5,a1
40000ed4:	00078513          	addi	a0,a5,0 # ff000000 <_stack+0xaf000004>
40000ed8:	00008067          	jalr	zero,0(ra)
40000edc:	c8070713          	addi	a4,a4,-896
40000ee0:	fd5ff06f          	jal	zero,40000eb4 <__truncdfsf2+0x94>

40000ee4 <__cmpdf2>:
40000ee4:	00058793          	addi	a5,a1,0
40000ee8:	00050813          	addi	a6,a0,0 # 80000000 <_stack+0x30000004>
40000eec:	00068713          	addi	a4,a3,0
40000ef0:	0205c463          	blt	a1,zero,40000f18 <__cmpdf2+0x34>
40000ef4:	00e7ce63          	blt	a5,a4,40000f10 <__cmpdf2+0x2c>
40000ef8:	00100513          	addi	a0,zero,1
40000efc:	00f74c63          	blt	a4,a5,40000f14 <__cmpdf2+0x30>
40000f00:	fff00513          	addi	a0,zero,-1
40000f04:	00c86863          	bltu	a6,a2,40000f14 <__cmpdf2+0x30>
40000f08:	01063533          	sltu	a0,a2,a6
40000f0c:	00008067          	jalr	zero,0(ra)
40000f10:	fff00513          	addi	a0,zero,-1
40000f14:	00008067          	jalr	zero,0(ra)
40000f18:	fff00513          	addi	a0,zero,-1
40000f1c:	fe06dce3          	bge	a3,zero,40000f14 <__cmpdf2+0x30>
40000f20:	80000737          	lui	a4,0x80000
40000f24:	00b747b3          	xor	a5,a4,a1
40000f28:	00d74733          	xor	a4,a4,a3
40000f2c:	fc9ff06f          	jal	zero,40000ef4 <__cmpdf2+0x10>

40000f30 <__adddf3>:
40000f30:	00c6e7b3          	or	a5,a3,a2
40000f34:	00058e13          	addi	t3,a1,0
40000f38:	16078263          	beq	a5,zero,4000109c <__adddf3+0x16c>
40000f3c:	00a5e7b3          	or	a5,a1,a0
40000f40:	00060813          	addi	a6,a2,0 # ff800000 <_stack+0xaf800004>
40000f44:	00068893          	addi	a7,a3,0
40000f48:	14078463          	beq	a5,zero,40001090 <__adddf3+0x160>
40000f4c:	4146d793          	srai	a5,a3,0x14
40000f50:	4145d713          	srai	a4,a1,0x14
40000f54:	7ff7f313          	andi	t1,a5,2047
40000f58:	7ff77713          	andi	a4,a4,2047
40000f5c:	03630793          	addi	a5,t1,54
40000f60:	00068e93          	addi	t4,a3,0
40000f64:	00050813          	addi	a6,a0,0
40000f68:	00058893          	addi	a7,a1,0
40000f6c:	12e7c263          	blt	a5,a4,40001090 <__adddf3+0x160>
40000f70:	03670793          	addi	a5,a4,54 # 80000036 <_stack+0x3000003a>
40000f74:	00060813          	addi	a6,a2,0
40000f78:	00068893          	addi	a7,a3,0
40000f7c:	1067ca63          	blt	a5,t1,40001090 <__adddf3+0x160>
40000f80:	200008b7          	lui	a7,0x20000
40000f84:	01755f13          	srli	t5,a0,0x17
40000f88:	01765793          	srli	a5,a2,0x17
40000f8c:	00959593          	slli	a1,a1,0x9
40000f90:	00969693          	slli	a3,a3,0x9
40000f94:	fff88813          	addi	a6,a7,-1 # 1fffffff <_entry-0x20000001>
40000f98:	00d7e6b3          	or	a3,a5,a3
40000f9c:	00bf65b3          	or	a1,t5,a1
40000fa0:	0105f5b3          	and	a1,a1,a6
40000fa4:	00961613          	slli	a2,a2,0x9
40000fa8:	0106f833          	and	a6,a3,a6
40000fac:	00951513          	slli	a0,a0,0x9
40000fb0:	00b8e5b3          	or	a1,a7,a1
40000fb4:	00060693          	addi	a3,a2,0
40000fb8:	0108e833          	or	a6,a7,a6
40000fbc:	100e4463          	blt	t3,zero,400010c4 <__adddf3+0x194>
40000fc0:	0e0ec863          	blt	t4,zero,400010b0 <__adddf3+0x180>
40000fc4:	10e35c63          	bge	t1,a4,400010dc <__adddf3+0x1ac>
40000fc8:	40670333          	sub	t1,a4,t1
40000fcc:	fe030613          	addi	a2,t1,-32
40000fd0:	14064063          	blt	a2,zero,40001110 <__adddf3+0x1e0>
40000fd4:	40c856b3          	sra	a3,a6,a2
40000fd8:	41f85813          	srai	a6,a6,0x1f
40000fdc:	00d506b3          	add	a3,a0,a3
40000fe0:	00a6b533          	sltu	a0,a3,a0
40000fe4:	01058833          	add	a6,a1,a6
40000fe8:	010507b3          	add	a5,a0,a6
40000fec:	1007c663          	blt	a5,zero,400010f8 <__adddf3+0x1c8>
40000ff0:	00f6e633          	or	a2,a3,a5
40000ff4:	00000813          	addi	a6,zero,0
40000ff8:	00000893          	addi	a7,zero,0
40000ffc:	00000513          	addi	a0,zero,0
40001000:	08060863          	beq	a2,zero,40001090 <__adddf3+0x160>
40001004:	e0000637          	lui	a2,0xe0000
40001008:	00f67633          	and	a2,a2,a5
4000100c:	e00005b7          	lui	a1,0xe0000
40001010:	14061263          	bne	a2,zero,40001154 <__adddf3+0x224>
40001014:	01f6d613          	srli	a2,a3,0x1f
40001018:	00179793          	slli	a5,a5,0x1
4000101c:	00f667b3          	or	a5,a2,a5
40001020:	00f5f633          	and	a2,a1,a5
40001024:	00169693          	slli	a3,a3,0x1
40001028:	fff70713          	addi	a4,a4,-1
4000102c:	fe0604e3          	beq	a2,zero,40001014 <__adddf3+0xe4>
40001030:	2006f613          	andi	a2,a3,512
40001034:	00c03633          	sltu	a2,zero,a2
40001038:	0ff60613          	addi	a2,a2,255 # e00000ff <_stack+0x90000103>
4000103c:	00c68633          	add	a2,a3,a2
40001040:	00d636b3          	sltu	a3,a2,a3
40001044:	00f686b3          	add	a3,a3,a5
40001048:	c00007b7          	lui	a5,0xc0000
4000104c:	00d7f7b3          	and	a5,a5,a3
40001050:	00078c63          	beq	a5,zero,40001068 <__adddf3+0x138>
40001054:	01f69793          	slli	a5,a3,0x1f
40001058:	00165613          	srli	a2,a2,0x1
4000105c:	00c7e633          	or	a2,a5,a2
40001060:	4016d693          	srai	a3,a3,0x1
40001064:	00170713          	addi	a4,a4,1
40001068:	fff007b7          	lui	a5,0xfff00
4000106c:	4096d893          	srai	a7,a3,0x9
40001070:	01471713          	slli	a4,a4,0x14
40001074:	fff78793          	addi	a5,a5,-1 # ffefffff <_stack+0xaff00003>
40001078:	01769693          	slli	a3,a3,0x17
4000107c:	00965813          	srli	a6,a2,0x9
40001080:	00a70733          	add	a4,a4,a0
40001084:	00f8f8b3          	and	a7,a7,a5
40001088:	0106e833          	or	a6,a3,a6
4000108c:	011768b3          	or	a7,a4,a7
40001090:	00080513          	addi	a0,a6,0
40001094:	00088593          	addi	a1,a7,0
40001098:	00008067          	jalr	zero,0(ra)
4000109c:	00050813          	addi	a6,a0,0
400010a0:	00058893          	addi	a7,a1,0 # e0000000 <_stack+0x90000004>
400010a4:	00080513          	addi	a0,a6,0
400010a8:	00088593          	addi	a1,a7,0
400010ac:	00008067          	jalr	zero,0(ra)
400010b0:	40c006b3          	sub	a3,zero,a2
400010b4:	00d03633          	sltu	a2,zero,a3
400010b8:	41000833          	sub	a6,zero,a6
400010bc:	40c80833          	sub	a6,a6,a2
400010c0:	f05ff06f          	jal	zero,40000fc4 <__adddf3+0x94>
400010c4:	40a00533          	sub	a0,zero,a0
400010c8:	00a038b3          	sltu	a7,zero,a0
400010cc:	40b005b3          	sub	a1,zero,a1
400010d0:	411585b3          	sub	a1,a1,a7
400010d4:	ee0ed8e3          	bge	t4,zero,40000fc4 <__adddf3+0x94>
400010d8:	fd9ff06f          	jal	zero,400010b0 <__adddf3+0x180>
400010dc:	40e30733          	sub	a4,t1,a4
400010e0:	fe070613          	addi	a2,a4,-32
400010e4:	04064663          	blt	a2,zero,40001130 <__adddf3+0x200>
400010e8:	40c5d533          	sra	a0,a1,a2
400010ec:	00030713          	addi	a4,t1,0
400010f0:	41f5d593          	srai	a1,a1,0x1f
400010f4:	ee9ff06f          	jal	zero,40000fdc <__adddf3+0xac>
400010f8:	40d006b3          	sub	a3,zero,a3
400010fc:	00d03633          	sltu	a2,zero,a3
40001100:	40f007b3          	sub	a5,zero,a5
40001104:	40c787b3          	sub	a5,a5,a2
40001108:	80000537          	lui	a0,0x80000
4000110c:	ef9ff06f          	jal	zero,40001004 <__adddf3+0xd4>
40001110:	01f00613          	addi	a2,zero,31
40001114:	00181793          	slli	a5,a6,0x1
40001118:	40660633          	sub	a2,a2,t1
4000111c:	00c797b3          	sll	a5,a5,a2
40001120:	0066d6b3          	srl	a3,a3,t1
40001124:	00d7e6b3          	or	a3,a5,a3
40001128:	40685833          	sra	a6,a6,t1
4000112c:	eb1ff06f          	jal	zero,40000fdc <__adddf3+0xac>
40001130:	01f00613          	addi	a2,zero,31
40001134:	00159793          	slli	a5,a1,0x1
40001138:	40e60633          	sub	a2,a2,a4
4000113c:	00e55533          	srl	a0,a0,a4
40001140:	00c797b3          	sll	a5,a5,a2
40001144:	40e5d5b3          	sra	a1,a1,a4
40001148:	00a7e533          	or	a0,a5,a0
4000114c:	00030713          	addi	a4,t1,0
40001150:	e8dff06f          	jal	zero,40000fdc <__adddf3+0xac>
40001154:	c0000637          	lui	a2,0xc0000
40001158:	00f67633          	and	a2,a2,a5
4000115c:	ec060ae3          	beq	a2,zero,40001030 <__adddf3+0x100>
40001160:	01f79613          	slli	a2,a5,0x1f
40001164:	0016d693          	srli	a3,a3,0x1
40001168:	00d666b3          	or	a3,a2,a3
4000116c:	4017d793          	srai	a5,a5,0x1
40001170:	00170713          	addi	a4,a4,1
40001174:	ebdff06f          	jal	zero,40001030 <__adddf3+0x100>

40001178 <__subdf3>:
40001178:	00c6e733          	or	a4,a3,a2
4000117c:	00050813          	addi	a6,a0,0 # 80000000 <_stack+0x30000004>
40001180:	00058793          	addi	a5,a1,0
40001184:	02070263          	beq	a4,zero,400011a8 <__subdf3+0x30>
40001188:	80000737          	lui	a4,0x80000
4000118c:	00a5e7b3          	or	a5,a1,a0
40001190:	00d74733          	xor	a4,a4,a3
40001194:	00060813          	addi	a6,a2,0 # c0000000 <_stack+0x70000004>
40001198:	00078663          	beq	a5,zero,400011a4 <__subdf3+0x2c>
4000119c:	00070693          	addi	a3,a4,0 # 80000000 <_stack+0x30000004>
400011a0:	d91ff06f          	jal	zero,40000f30 <__adddf3>
400011a4:	00070793          	addi	a5,a4,0
400011a8:	00080513          	addi	a0,a6,0
400011ac:	00078593          	addi	a1,a5,0
400011b0:	00008067          	jalr	zero,0(ra)

400011b4 <__ltdf2>:
400011b4:	fe010113          	addi	sp,sp,-32
400011b8:	01212823          	sw	s2,16(sp)
400011bc:	01312623          	sw	s3,12(sp)
400011c0:	00050913          	addi	s2,a0,0
400011c4:	00058993          	addi	s3,a1,0
400011c8:	00060513          	addi	a0,a2,0
400011cc:	00068593          	addi	a1,a3,0
400011d0:	00112e23          	sw	ra,28(sp)
400011d4:	00812c23          	sw	s0,24(sp)
400011d8:	00912a23          	sw	s1,20(sp)
400011dc:	c45ff0ef          	jal	ra,40000e20 <__truncdfsf2>
400011e0:	bf9ff0ef          	jal	ra,40000dd8 <__extendsfdf2>
400011e4:	00050413          	addi	s0,a0,0
400011e8:	00058493          	addi	s1,a1,0
400011ec:	00090513          	addi	a0,s2,0
400011f0:	00098593          	addi	a1,s3,0
400011f4:	c2dff0ef          	jal	ra,40000e20 <__truncdfsf2>
400011f8:	be1ff0ef          	jal	ra,40000dd8 <__extendsfdf2>
400011fc:	00040613          	addi	a2,s0,0
40001200:	00048693          	addi	a3,s1,0
40001204:	ce1ff0ef          	jal	ra,40000ee4 <__cmpdf2>
40001208:	01c12083          	lw	ra,28(sp)
4000120c:	01812403          	lw	s0,24(sp)
40001210:	01412483          	lw	s1,20(sp)
40001214:	01012903          	lw	s2,16(sp)
40001218:	00c12983          	lw	s3,12(sp)
4000121c:	41f55513          	srai	a0,a0,0x1f
40001220:	02010113          	addi	sp,sp,32
40001224:	00008067          	jalr	zero,0(ra)

40001228 <teste2>:
40001228:	747367b7          	lui	a5,0x74736
4000122c:	fe010113          	addi	sp,sp,-32
40001230:	57478793          	addi	a5,a5,1396 # 74736574 <_stack+0x24736578>
40001234:	00f12423          	sw	a5,8(sp)
40001238:	000037b7          	lui	a5,0x3
4000123c:	26578793          	addi	a5,a5,613 # 3265 <_entry-0x3fffcd9b>
40001240:	03800613          	addi	a2,zero,56
40001244:	00410593          	addi	a1,sp,4
40001248:	00810513          	addi	a0,sp,8
4000124c:	00112e23          	sw	ra,28(sp)
40001250:	00812c23          	sw	s0,24(sp)
40001254:	00f11623          	sh	a5,12(sp)
40001258:	00010723          	sb	zero,14(sp)
4000125c:	8adff0ef          	jal	ra,40000b08 <strtol>
40001260:	400015b7          	lui	a1,0x40001
40001264:	00050413          	addi	s0,a0,0
40001268:	6b058593          	addi	a1,a1,1712 # 400016b0 <_rodata+0x1b8>
4000126c:	03800513          	addi	a0,zero,56
40001270:	930ff0ef          	jal	ra,400003a0 <testa_hfunit_base>
40001274:	00040513          	addi	a0,s0,0
40001278:	99dff0ef          	jal	ra,40000c14 <printf>
4000127c:	01c12083          	lw	ra,28(sp)
40001280:	01812403          	lw	s0,24(sp)
40001284:	02010113          	addi	sp,sp,32
40001288:	00008067          	jalr	zero,0(ra)

4000128c <teste3>:
4000128c:	ff010113          	addi	sp,sp,-16
40001290:	00400613          	addi	a2,zero,4
40001294:	00000593          	addi	a1,zero,0
40001298:	3e800513          	addi	a0,zero,1000
4000129c:	00112623          	sw	ra,12(sp)
400012a0:	00812423          	sw	s0,8(sp)
400012a4:	00912223          	sw	s1,4(sp)
400012a8:	861ff0ef          	jal	ra,40000b08 <strtol>
400012ac:	00050413          	addi	s0,a0,0
400012b0:	400014b7          	lui	s1,0x40001
400012b4:	a95ff0ef          	jal	ra,40000d48 <__floatsisf>
400012b8:	6c04a583          	lw	a1,1728(s1) # 400016c0 <_rodata+0x1c8>
400012bc:	40001637          	lui	a2,0x40001
400012c0:	6c460613          	addi	a2,a2,1732 # 400016c4 <_rodata+0x1cc>
400012c4:	fc5fe0ef          	jal	ra,40000288 <hfunit_comp_float>
400012c8:	00040593          	addi	a1,s0,0
400012cc:	00812403          	lw	s0,8(sp)
400012d0:	00c12083          	lw	ra,12(sp)
400012d4:	00412483          	lw	s1,4(sp)
400012d8:	40001537          	lui	a0,0x40001
400012dc:	6c850513          	addi	a0,a0,1736 # 400016c8 <_rodata+0x1d0>
400012e0:	01010113          	addi	sp,sp,16
400012e4:	931ff06f          	jal	zero,40000c14 <printf>

400012e8 <teste4>:
400012e8:	ff010113          	addi	sp,sp,-16
400012ec:	00000613          	addi	a2,zero,0
400012f0:	00000593          	addi	a1,zero,0
400012f4:	3e800513          	addi	a0,zero,1000
400012f8:	00112623          	sw	ra,12(sp)
400012fc:	00812423          	sw	s0,8(sp)
40001300:	00912223          	sw	s1,4(sp)
40001304:	805ff0ef          	jal	ra,40000b08 <strtol>
40001308:	00050413          	addi	s0,a0,0
4000130c:	400014b7          	lui	s1,0x40001
40001310:	a39ff0ef          	jal	ra,40000d48 <__floatsisf>
40001314:	6c04a583          	lw	a1,1728(s1) # 400016c0 <_rodata+0x1c8>
40001318:	40001637          	lui	a2,0x40001
4000131c:	6c460613          	addi	a2,a2,1732 # 400016c4 <_rodata+0x1cc>
40001320:	f69fe0ef          	jal	ra,40000288 <hfunit_comp_float>
40001324:	40001537          	lui	a0,0x40001
40001328:	00040593          	addi	a1,s0,0
4000132c:	6c850513          	addi	a0,a0,1736 # 400016c8 <_rodata+0x1d0>
40001330:	8e5ff0ef          	jal	ra,40000c14 <printf>
40001334:	00812403          	lw	s0,8(sp)
40001338:	00c12083          	lw	ra,12(sp)
4000133c:	00412483          	lw	s1,4(sp)
40001340:	40001537          	lui	a0,0x40001
40001344:	3e800593          	addi	a1,zero,1000
40001348:	6e450513          	addi	a0,a0,1764 # 400016e4 <_rodata+0x1ec>
4000134c:	01010113          	addi	sp,sp,16
40001350:	8c5ff06f          	jal	zero,40000c14 <printf>

40001354 <teste5>:
40001354:	666687b7          	lui	a5,0x66668
40001358:	fe010113          	addi	sp,sp,-32
4000135c:	83078793          	addi	a5,a5,-2000 # 66667830 <_stack+0x16667834>
40001360:	00f12423          	sw	a5,8(sp)
40001364:	000067b7          	lui	a5,0x6
40001368:	66678793          	addi	a5,a5,1638 # 6666 <_entry-0x3fff999a>
4000136c:	00000613          	addi	a2,zero,0
40001370:	00410593          	addi	a1,sp,4
40001374:	00810513          	addi	a0,sp,8
40001378:	00112e23          	sw	ra,28(sp)
4000137c:	00812c23          	sw	s0,24(sp)
40001380:	00f11623          	sh	a5,12(sp)
40001384:	00010723          	sb	zero,14(sp)
40001388:	f80ff0ef          	jal	ra,40000b08 <strtol>
4000138c:	400015b7          	lui	a1,0x40001
40001390:	00050413          	addi	s0,a0,0
40001394:	70058593          	addi	a1,a1,1792 # 40001700 <_rodata+0x208>
40001398:	00000513          	addi	a0,zero,0
4000139c:	804ff0ef          	jal	ra,400003a0 <testa_hfunit_base>
400013a0:	40001537          	lui	a0,0x40001
400013a4:	00040593          	addi	a1,s0,0
400013a8:	71050513          	addi	a0,a0,1808 # 40001710 <_rodata+0x218>
400013ac:	869ff0ef          	jal	ra,40000c14 <printf>
400013b0:	01c12083          	lw	ra,28(sp)
400013b4:	01812403          	lw	s0,24(sp)
400013b8:	02010113          	addi	sp,sp,32
400013bc:	00008067          	jalr	zero,0(ra)

400013c0 <teste6>:
400013c0:	736577b7          	lui	a5,0x73657
400013c4:	fe010113          	addi	sp,sp,-32
400013c8:	42d78793          	addi	a5,a5,1069 # 7365742d <_stack+0x23657431>
400013cc:	00f12423          	sw	a5,8(sp)
400013d0:	000067b7          	lui	a5,0x6
400013d4:	57478793          	addi	a5,a5,1396 # 6574 <_entry-0x3fff9a8c>
400013d8:	00000613          	addi	a2,zero,0
400013dc:	00000593          	addi	a1,zero,0
400013e0:	00810513          	addi	a0,sp,8
400013e4:	00112e23          	sw	ra,28(sp)
400013e8:	00812c23          	sw	s0,24(sp)
400013ec:	00f11623          	sh	a5,12(sp)
400013f0:	00010723          	sb	zero,14(sp)
400013f4:	f14ff0ef          	jal	ra,40000b08 <strtol>
400013f8:	400015b7          	lui	a1,0x40001
400013fc:	00050413          	addi	s0,a0,0
40001400:	70058593          	addi	a1,a1,1792 # 40001700 <_rodata+0x208>
40001404:	00000513          	addi	a0,zero,0
40001408:	f99fe0ef          	jal	ra,400003a0 <testa_hfunit_base>
4000140c:	40001537          	lui	a0,0x40001
40001410:	00040593          	addi	a1,s0,0
40001414:	71050513          	addi	a0,a0,1808 # 40001710 <_rodata+0x218>
40001418:	ffcff0ef          	jal	ra,40000c14 <printf>
4000141c:	01c12083          	lw	ra,28(sp)
40001420:	01812403          	lw	s0,24(sp)
40001424:	02010113          	addi	sp,sp,32
40001428:	00008067          	jalr	zero,0(ra)

4000142c <hfunit_run_tests>:
4000142c:	ff010113          	addi	sp,sp,-16
40001430:	00112623          	sw	ra,12(sp)
40001434:	df5ff0ef          	jal	ra,40001228 <teste2>
40001438:	e55ff0ef          	jal	ra,4000128c <teste3>
4000143c:	eadff0ef          	jal	ra,400012e8 <teste4>
40001440:	f15ff0ef          	jal	ra,40001354 <teste5>
40001444:	00c12083          	lw	ra,12(sp)
40001448:	01010113          	addi	sp,sp,16
4000144c:	f75ff06f          	jal	zero,400013c0 <teste6>

40001450 <main_test>:
40001450:	ff010113          	addi	sp,sp,-16
40001454:	00912223          	sw	s1,4(sp)
40001458:	400014b7          	lui	s1,0x40001
4000145c:	73048513          	addi	a0,s1,1840 # 40001730 <_rodata+0x238>
40001460:	00112623          	sw	ra,12(sp)
40001464:	00812423          	sw	s0,8(sp)
40001468:	facff0ef          	jal	ra,40000c14 <printf>
4000146c:	fc1ff0ef          	jal	ra,4000142c <hfunit_run_tests>
40001470:	73048513          	addi	a0,s1,1840
40001474:	fa0ff0ef          	jal	ra,40000c14 <printf>
40001478:	40002437          	lui	s0,0x40002
4000147c:	400027b7          	lui	a5,0x40002
40001480:	81440413          	addi	s0,s0,-2028 # 40001814 <failed_tests>
40001484:	00042603          	lw	a2,0(s0)
40001488:	8107a583          	lw	a1,-2032(a5) # 40001810 <_edata>
4000148c:	40001537          	lui	a0,0x40001
40001490:	74850513          	addi	a0,a0,1864 # 40001748 <_rodata+0x250>
40001494:	f80ff0ef          	jal	ra,40000c14 <printf>
40001498:	73048513          	addi	a0,s1,1840
4000149c:	f78ff0ef          	jal	ra,40000c14 <printf>
400014a0:	00042403          	lw	s0,0(s0)
400014a4:	02040663          	beq	s0,zero,400014d0 <main_test+0x80>
400014a8:	40001537          	lui	a0,0x40001
400014ac:	77050513          	addi	a0,a0,1904 # 40001770 <_rodata+0x278>
400014b0:	f64ff0ef          	jal	ra,40000c14 <printf>
400014b4:	00100413          	addi	s0,zero,1
400014b8:	00040513          	addi	a0,s0,0
400014bc:	00c12083          	lw	ra,12(sp)
400014c0:	00812403          	lw	s0,8(sp)
400014c4:	00412483          	lw	s1,4(sp)
400014c8:	01010113          	addi	sp,sp,16
400014cc:	00008067          	jalr	zero,0(ra)
400014d0:	40001537          	lui	a0,0x40001
400014d4:	78450513          	addi	a0,a0,1924 # 40001784 <_rodata+0x28c>
400014d8:	f3cff0ef          	jal	ra,40000c14 <printf>
400014dc:	00040513          	addi	a0,s0,0
400014e0:	00c12083          	lw	ra,12(sp)
400014e4:	00812403          	lw	s0,8(sp)
400014e8:	00412483          	lw	s1,4(sp)
400014ec:	01010113          	addi	sp,sp,16
400014f0:	00008067          	jalr	zero,0(ra)
